ARM GAS  /tmp/ccJxyfHj.s 			page 1


   1              		.cpu cortex-m4
   2              		.eabi_attribute 27, 1
   3              		.eabi_attribute 28, 1
   4              		.eabi_attribute 20, 1
   5              		.eabi_attribute 21, 1
   6              		.eabi_attribute 23, 3
   7              		.eabi_attribute 24, 1
   8              		.eabi_attribute 25, 1
   9              		.eabi_attribute 26, 1
  10              		.eabi_attribute 30, 1
  11              		.eabi_attribute 34, 1
  12              		.eabi_attribute 18, 4
  13              		.file	"configuration.c"
  14              		.text
  15              	.Ltext0:
  16              		.cfi_sections	.debug_frame
  17              		.section	.text.API_Set_resolution,"ax",%progbits
  18              		.align	1
  19              		.global	API_Set_resolution
  20              		.arch armv7e-m
  21              		.syntax unified
  22              		.thumb
  23              		.thumb_func
  24              		.fpu fpv4-sp-d16
  26              	API_Set_resolution:
  27              	.LVL0:
  28              	.LFB0:
  29              		.file 1 "EE_API_LIB/src/configuration.c"
   1:EE_API_LIB/src/configuration.c **** /**
   2:EE_API_LIB/src/configuration.c ****  * @file configuration.c
   3:EE_API_LIB/src/configuration.c ****  * @author your name (you@domain.com)
   4:EE_API_LIB/src/configuration.c ****  * @brief 
   5:EE_API_LIB/src/configuration.c ****  * @version 0.1
   6:EE_API_LIB/src/configuration.c ****  * @date 2021-04-25
   7:EE_API_LIB/src/configuration.c ****  * 
   8:EE_API_LIB/src/configuration.c ****  * @copyright Copyright (c) 2021
   9:EE_API_LIB/src/configuration.c ****  * 
  10:EE_API_LIB/src/configuration.c ****  */
  11:EE_API_LIB/src/configuration.c **** 
  12:EE_API_LIB/src/configuration.c **** #include "graphics.h"
  13:EE_API_LIB/src/configuration.c **** #include <stddef.h>
  14:EE_API_LIB/src/configuration.c **** 
  15:EE_API_LIB/src/configuration.c **** uint32_t _w;
  16:EE_API_LIB/src/configuration.c **** 
  17:EE_API_LIB/src/configuration.c **** uint32_t _h;
  18:EE_API_LIB/src/configuration.c **** 
  19:EE_API_LIB/src/configuration.c **** void API_Set_resolution(uint32_t w, uint32_t h)
  20:EE_API_LIB/src/configuration.c **** {
  30              		.loc 1 20 1 view -0
  31              		.cfi_startproc
  32              		@ args = 0, pretend = 0, frame = 0
  33              		@ frame_needed = 0, uses_anonymous_args = 0
  34              		@ link register save eliminated.
  21:EE_API_LIB/src/configuration.c ****     _w = w;
  35              		.loc 1 21 5 view .LVU1
  36              		.loc 1 21 8 is_stmt 0 view .LVU2
  37 0000 024B     		ldr	r3, .L2
ARM GAS  /tmp/ccJxyfHj.s 			page 2


  38 0002 1860     		str	r0, [r3]
  22:EE_API_LIB/src/configuration.c ****     _h = h;
  39              		.loc 1 22 5 is_stmt 1 view .LVU3
  40              		.loc 1 22 8 is_stmt 0 view .LVU4
  41 0004 024B     		ldr	r3, .L2+4
  42 0006 1960     		str	r1, [r3]
  23:EE_API_LIB/src/configuration.c **** }
  43              		.loc 1 23 1 view .LVU5
  44 0008 7047     		bx	lr
  45              	.L3:
  46 000a 00BF     		.align	2
  47              	.L2:
  48 000c 00000000 		.word	_w
  49 0010 00000000 		.word	_h
  50              		.cfi_endproc
  51              	.LFE0:
  53              		.section	.text.API_Bind_set_pixel_callback,"ax",%progbits
  54              		.align	1
  55              		.global	API_Bind_set_pixel_callback
  56              		.syntax unified
  57              		.thumb
  58              		.thumb_func
  59              		.fpu fpv4-sp-d16
  61              	API_Bind_set_pixel_callback:
  62              	.LVL1:
  63              	.LFB1:
  24:EE_API_LIB/src/configuration.c **** 
  25:EE_API_LIB/src/configuration.c **** SetPixelCallback _set_pixel_callback = NULL;
  26:EE_API_LIB/src/configuration.c **** 
  27:EE_API_LIB/src/configuration.c **** inline void API_Bind_set_pixel_callback(SetPixelCallback callback)
  28:EE_API_LIB/src/configuration.c **** {
  64              		.loc 1 28 1 is_stmt 1 view -0
  65              		.cfi_startproc
  66              		@ args = 0, pretend = 0, frame = 0
  67              		@ frame_needed = 0, uses_anonymous_args = 0
  68              		@ link register save eliminated.
  29:EE_API_LIB/src/configuration.c ****     _set_pixel_callback = callback;
  69              		.loc 1 29 5 view .LVU7
  70              		.loc 1 29 25 is_stmt 0 view .LVU8
  71 0000 014B     		ldr	r3, .L5
  72 0002 1860     		str	r0, [r3]
  30:EE_API_LIB/src/configuration.c **** }
  73              		.loc 1 30 1 view .LVU9
  74 0004 7047     		bx	lr
  75              	.L6:
  76 0006 00BF     		.align	2
  77              	.L5:
  78 0008 00000000 		.word	.LANCHOR0
  79              		.cfi_endproc
  80              	.LFE1:
  82              		.section	.text.API_Bind_fill_screen_callback,"ax",%progbits
  83              		.align	1
  84              		.global	API_Bind_fill_screen_callback
  85              		.syntax unified
  86              		.thumb
  87              		.thumb_func
  88              		.fpu fpv4-sp-d16
ARM GAS  /tmp/ccJxyfHj.s 			page 3


  90              	API_Bind_fill_screen_callback:
  91              	.LVL2:
  92              	.LFB2:
  31:EE_API_LIB/src/configuration.c **** 
  32:EE_API_LIB/src/configuration.c **** SetFillScreenCallback _fill_screen_callback = NULL;
  33:EE_API_LIB/src/configuration.c **** 
  34:EE_API_LIB/src/configuration.c **** inline void API_Bind_fill_screen_callback(SetFillScreenCallback callback)
  35:EE_API_LIB/src/configuration.c **** {
  93              		.loc 1 35 1 is_stmt 1 view -0
  94              		.cfi_startproc
  95              		@ args = 0, pretend = 0, frame = 0
  96              		@ frame_needed = 0, uses_anonymous_args = 0
  97              		@ link register save eliminated.
  36:EE_API_LIB/src/configuration.c ****     _fill_screen_callback = callback;
  98              		.loc 1 36 5 view .LVU11
  99              		.loc 1 36 27 is_stmt 0 view .LVU12
 100 0000 014B     		ldr	r3, .L8
 101 0002 1860     		str	r0, [r3]
  37:EE_API_LIB/src/configuration.c **** }
 102              		.loc 1 37 1 view .LVU13
 103 0004 7047     		bx	lr
 104              	.L9:
 105 0006 00BF     		.align	2
 106              	.L8:
 107 0008 00000000 		.word	.LANCHOR1
 108              		.cfi_endproc
 109              	.LFE2:
 111              		.global	_fill_screen_callback
 112              		.global	_set_pixel_callback
 113              		.comm	_h,4,4
 114              		.comm	_w,4,4
 115              		.section	.bss._fill_screen_callback,"aw",%nobits
 116              		.align	2
 117              		.set	.LANCHOR1,. + 0
 120              	_fill_screen_callback:
 121 0000 00000000 		.space	4
 122              		.section	.bss._set_pixel_callback,"aw",%nobits
 123              		.align	2
 124              		.set	.LANCHOR0,. + 0
 127              	_set_pixel_callback:
 128 0000 00000000 		.space	4
 129              		.text
 130              	.Letext0:
 131              		.file 2 "/usr/lib/gcc/arm-none-eabi/9.2.1/include/stdint.h"
 132              		.file 3 "EE_API_LIB/graphics.h"
ARM GAS  /tmp/ccJxyfHj.s 			page 4

