ARM GAS  /tmp/ccNlbooB.s 			page 1


   1              		.cpu cortex-m4
   2              		.eabi_attribute 27, 1
   3              		.eabi_attribute 28, 1
   4              		.eabi_attribute 20, 1
   5              		.eabi_attribute 21, 1
   6              		.eabi_attribute 23, 3
   7              		.eabi_attribute 24, 1
   8              		.eabi_attribute 25, 1
   9              		.eabi_attribute 26, 1
  10              		.eabi_attribute 30, 1
  11              		.eabi_attribute 34, 1
  12              		.eabi_attribute 18, 4
  13              		.file	"graphics.c"
  14              		.text
  15              	.Ltext0:
  16              		.cfi_sections	.debug_frame
  17              		.section	.text.API_Set_pixel,"ax",%progbits
  18              		.align	1
  19              		.global	API_Set_pixel
  20              		.arch armv7e-m
  21              		.syntax unified
  22              		.thumb
  23              		.thumb_func
  24              		.fpu fpv4-sp-d16
  26              	API_Set_pixel:
  27              	.LVL0:
  28              	.LFB0:
  29              		.file 1 "EE_API_LIB/src/graphics.c"
   1:EE_API_LIB/src/graphics.c **** /**
   2:EE_API_LIB/src/graphics.c ****  * @file shapes.c
   3:EE_API_LIB/src/graphics.c ****  * @author your name (you@domain.com)
   4:EE_API_LIB/src/graphics.c ****  * @brief 
   5:EE_API_LIB/src/graphics.c ****  * @version 0.1
   6:EE_API_LIB/src/graphics.c ****  * @date 2021-04-27
   7:EE_API_LIB/src/graphics.c ****  * 
   8:EE_API_LIB/src/graphics.c ****  * @copyright Copyright (c) 2021
   9:EE_API_LIB/src/graphics.c ****  * 
  10:EE_API_LIB/src/graphics.c ****  */
  11:EE_API_LIB/src/graphics.c **** 
  12:EE_API_LIB/src/graphics.c **** #include "graphics.h"
  13:EE_API_LIB/src/graphics.c **** #include <inttypes.h>
  14:EE_API_LIB/src/graphics.c **** #include <stddef.h>
  15:EE_API_LIB/src/graphics.c **** // #include <math.h>
  16:EE_API_LIB/src/graphics.c **** 
  17:EE_API_LIB/src/graphics.c **** #define sgn(v) (((v) < 0) ? -1 : ((v) > 0))
  18:EE_API_LIB/src/graphics.c **** #define abs(v) (((v) < 0) ? (v * -1) : (v))
  19:EE_API_LIB/src/graphics.c **** 
  20:EE_API_LIB/src/graphics.c **** extern uint32_t _w;
  21:EE_API_LIB/src/graphics.c **** extern uint32_t _h;
  22:EE_API_LIB/src/graphics.c **** 
  23:EE_API_LIB/src/graphics.c **** extern SetPixelCallback _set_pixel_callback;
  24:EE_API_LIB/src/graphics.c **** extern SetFillScreenCallback _fill_screen_callback;
  25:EE_API_LIB/src/graphics.c **** 
  26:EE_API_LIB/src/graphics.c **** inline void API_Set_pixel(int32_t x, int32_t y, uint8_t color)
  27:EE_API_LIB/src/graphics.c **** {
  30              		.loc 1 27 1 view -0
  31              		.cfi_startproc
ARM GAS  /tmp/ccNlbooB.s 			page 2


  32              		@ args = 0, pretend = 0, frame = 0
  33              		@ frame_needed = 0, uses_anonymous_args = 0
  34              		.loc 1 27 1 is_stmt 0 view .LVU1
  35 0000 08B5     		push	{r3, lr}
  36              	.LCFI0:
  37              		.cfi_def_cfa_offset 8
  38              		.cfi_offset 3, -8
  39              		.cfi_offset 14, -4
  28:EE_API_LIB/src/graphics.c ****     if (_set_pixel_callback == NULL)
  40              		.loc 1 28 5 is_stmt 1 view .LVU2
  41              		.loc 1 28 29 is_stmt 0 view .LVU3
  42 0002 024B     		ldr	r3, .L4
  43 0004 1B68     		ldr	r3, [r3]
  44              		.loc 1 28 8 view .LVU4
  45 0006 03B1     		cbz	r3, .L1
  29:EE_API_LIB/src/graphics.c ****         return;
  30:EE_API_LIB/src/graphics.c **** 
  31:EE_API_LIB/src/graphics.c ****     _set_pixel_callback(x, y, color);
  46              		.loc 1 31 5 is_stmt 1 view .LVU5
  47 0008 9847     		blx	r3
  48              	.LVL1:
  49              	.L1:
  32:EE_API_LIB/src/graphics.c **** }
  50              		.loc 1 32 1 is_stmt 0 view .LVU6
  51 000a 08BD     		pop	{r3, pc}
  52              	.L5:
  53              		.align	2
  54              	.L4:
  55 000c 00000000 		.word	_set_pixel_callback
  56              		.cfi_endproc
  57              	.LFE0:
  59              		.section	.text.API_Fill_screen,"ax",%progbits
  60              		.align	1
  61              		.global	API_Fill_screen
  62              		.syntax unified
  63              		.thumb
  64              		.thumb_func
  65              		.fpu fpv4-sp-d16
  67              	API_Fill_screen:
  68              	.LVL2:
  69              	.LFB1:
  33:EE_API_LIB/src/graphics.c **** 
  34:EE_API_LIB/src/graphics.c **** inline void API_Fill_screen(uint8_t color)
  35:EE_API_LIB/src/graphics.c **** {
  70              		.loc 1 35 1 is_stmt 1 view -0
  71              		.cfi_startproc
  72              		@ args = 0, pretend = 0, frame = 0
  73              		@ frame_needed = 0, uses_anonymous_args = 0
  74              		.loc 1 35 1 is_stmt 0 view .LVU8
  75 0000 2DE9F041 		push	{r4, r5, r6, r7, r8, lr}
  76              	.LCFI1:
  77              		.cfi_def_cfa_offset 24
  78              		.cfi_offset 4, -24
  79              		.cfi_offset 5, -20
  80              		.cfi_offset 6, -16
  81              		.cfi_offset 7, -12
  82              		.cfi_offset 8, -8
ARM GAS  /tmp/ccNlbooB.s 			page 3


  83              		.cfi_offset 14, -4
  36:EE_API_LIB/src/graphics.c ****     if (_fill_screen_callback != NULL)
  84              		.loc 1 36 5 is_stmt 1 view .LVU9
  85              		.loc 1 36 31 is_stmt 0 view .LVU10
  86 0004 104B     		ldr	r3, .L15
  87 0006 1B68     		ldr	r3, [r3]
  88              		.loc 1 36 8 view .LVU11
  89 0008 13B1     		cbz	r3, .L7
  37:EE_API_LIB/src/graphics.c ****         _fill_screen_callback(color);
  90              		.loc 1 37 9 is_stmt 1 view .LVU12
  91 000a 9847     		blx	r3
  92              	.LVL3:
  93              	.L6:
  38:EE_API_LIB/src/graphics.c ****     else
  39:EE_API_LIB/src/graphics.c ****         API_Fill_square(0, 0, _w, _h, color);
  40:EE_API_LIB/src/graphics.c **** }
  94              		.loc 1 40 1 is_stmt 0 view .LVU13
  95 000c BDE8F081 		pop	{r4, r5, r6, r7, r8, pc}
  96              	.LVL4:
  97              	.L7:
  39:EE_API_LIB/src/graphics.c **** }
  98              		.loc 1 39 9 is_stmt 1 view .LVU14
  99 0010 0E4B     		ldr	r3, .L15+4
 100 0012 D3F80080 		ldr	r8, [r3]
 101 0016 0E4B     		ldr	r3, .L15+8
 102 0018 1E68     		ldr	r6, [r3]
 103 001a 0746     		mov	r7, r0
 104              	.LVL5:
 105              	.LBB40:
 106              	.LBI40:
  41:EE_API_LIB/src/graphics.c **** 
  42:EE_API_LIB/src/graphics.c **** inline void API_Fill_square(uint32_t x, uint32_t y, uint32_t w, uint32_t h, uint32_t color)
 107              		.loc 1 42 13 view .LVU15
 108              	.LBB41:
  43:EE_API_LIB/src/graphics.c **** {
  44:EE_API_LIB/src/graphics.c ****     for (; x < x + w; x++)
 109              		.loc 1 44 5 view .LVU16
 110 001c 0024     		movs	r4, #0
 111 001e 2546     		mov	r5, r4
 112 0020 0DE0     		b	.L9
 113              	.LVL6:
 114              	.L10:
  45:EE_API_LIB/src/graphics.c ****         for (; y < y + h; y++)
 115              		.loc 1 45 27 view .LVU17
 116              		.loc 1 45 28 is_stmt 0 view .LVU18
 117 0022 0134     		adds	r4, r4, #1
 118              	.LVL7:
 119              	.L12:
 120              		.loc 1 45 16 is_stmt 1 view .LVU19
 121              		.loc 1 45 22 is_stmt 0 view .LVU20
 122 0024 3319     		adds	r3, r6, r4
 123              		.loc 1 45 9 view .LVU21
 124 0026 9C42     		cmp	r4, r3
 125 0028 08D2     		bcs	.L14
  46:EE_API_LIB/src/graphics.c ****             API_Set_pixel(x, y, color);
 126              		.loc 1 46 13 is_stmt 1 view .LVU22
 127              	.LVL8:
ARM GAS  /tmp/ccNlbooB.s 			page 4


 128              	.LBB42:
 129              	.LBI42:
  26:EE_API_LIB/src/graphics.c **** {
 130              		.loc 1 26 13 view .LVU23
 131              	.LBB43:
  28:EE_API_LIB/src/graphics.c ****         return;
 132              		.loc 1 28 5 view .LVU24
  28:EE_API_LIB/src/graphics.c ****         return;
 133              		.loc 1 28 29 is_stmt 0 view .LVU25
 134 002a 0A4B     		ldr	r3, .L15+12
 135 002c 1B68     		ldr	r3, [r3]
  28:EE_API_LIB/src/graphics.c ****         return;
 136              		.loc 1 28 8 view .LVU26
 137 002e 002B     		cmp	r3, #0
 138 0030 F7D0     		beq	.L10
  31:EE_API_LIB/src/graphics.c **** }
 139              		.loc 1 31 5 is_stmt 1 view .LVU27
 140 0032 3A46     		mov	r2, r7
 141 0034 2146     		mov	r1, r4
 142 0036 2846     		mov	r0, r5
 143 0038 9847     		blx	r3
 144              	.LVL9:
 145 003a F2E7     		b	.L10
 146              	.LVL10:
 147              	.L14:
  31:EE_API_LIB/src/graphics.c **** }
 148              		.loc 1 31 5 is_stmt 0 view .LVU28
 149              	.LBE43:
 150              	.LBE42:
  44:EE_API_LIB/src/graphics.c ****         for (; y < y + h; y++)
 151              		.loc 1 44 23 is_stmt 1 view .LVU29
  44:EE_API_LIB/src/graphics.c ****         for (; y < y + h; y++)
 152              		.loc 1 44 24 is_stmt 0 view .LVU30
 153 003c 0135     		adds	r5, r5, #1
 154              	.LVL11:
 155              	.L9:
  44:EE_API_LIB/src/graphics.c ****         for (; y < y + h; y++)
 156              		.loc 1 44 12 is_stmt 1 view .LVU31
  44:EE_API_LIB/src/graphics.c ****         for (; y < y + h; y++)
 157              		.loc 1 44 18 is_stmt 0 view .LVU32
 158 003e 08EB0503 		add	r3, r8, r5
  44:EE_API_LIB/src/graphics.c ****         for (; y < y + h; y++)
 159              		.loc 1 44 5 view .LVU33
 160 0042 9D42     		cmp	r5, r3
 161 0044 EED3     		bcc	.L12
 162 0046 E1E7     		b	.L6
 163              	.L16:
 164              		.align	2
 165              	.L15:
 166 0048 00000000 		.word	_fill_screen_callback
 167 004c 00000000 		.word	_w
 168 0050 00000000 		.word	_h
 169 0054 00000000 		.word	_set_pixel_callback
 170              	.LBE41:
 171              	.LBE40:
 172              		.cfi_endproc
 173              	.LFE1:
ARM GAS  /tmp/ccNlbooB.s 			page 5


 175              		.section	.text.API_Fill_square,"ax",%progbits
 176              		.align	1
 177              		.global	API_Fill_square
 178              		.syntax unified
 179              		.thumb
 180              		.thumb_func
 181              		.fpu fpv4-sp-d16
 183              	API_Fill_square:
 184              	.LVL12:
 185              	.LFB2:
  43:EE_API_LIB/src/graphics.c ****     for (; x < x + w; x++)
 186              		.loc 1 43 1 is_stmt 1 view -0
 187              		.cfi_startproc
 188              		@ args = 4, pretend = 0, frame = 0
 189              		@ frame_needed = 0, uses_anonymous_args = 0
  43:EE_API_LIB/src/graphics.c ****     for (; x < x + w; x++)
 190              		.loc 1 43 1 is_stmt 0 view .LVU35
 191 0000 2DE9F843 		push	{r3, r4, r5, r6, r7, r8, r9, lr}
 192              	.LCFI2:
 193              		.cfi_def_cfa_offset 32
 194              		.cfi_offset 3, -32
 195              		.cfi_offset 4, -28
 196              		.cfi_offset 5, -24
 197              		.cfi_offset 6, -20
 198              		.cfi_offset 7, -16
 199              		.cfi_offset 8, -12
 200              		.cfi_offset 9, -8
 201              		.cfi_offset 14, -4
 202 0004 0646     		mov	r6, r0
 203 0006 0C46     		mov	r4, r1
 204 0008 9146     		mov	r9, r2
 205 000a 1F46     		mov	r7, r3
 206 000c DDF82080 		ldr	r8, [sp, #32]
  44:EE_API_LIB/src/graphics.c ****         for (; y < y + h; y++)
 207              		.loc 1 44 5 is_stmt 1 view .LVU36
 208 0010 0EE0     		b	.L18
 209              	.LVL13:
 210              	.L19:
  45:EE_API_LIB/src/graphics.c ****             API_Set_pixel(x, y, color);
 211              		.loc 1 45 27 view .LVU37
  45:EE_API_LIB/src/graphics.c ****             API_Set_pixel(x, y, color);
 212              		.loc 1 45 28 is_stmt 0 view .LVU38
 213 0012 0134     		adds	r4, r4, #1
 214              	.LVL14:
 215              	.L21:
  45:EE_API_LIB/src/graphics.c ****             API_Set_pixel(x, y, color);
 216              		.loc 1 45 16 is_stmt 1 discriminator 1 view .LVU39
  45:EE_API_LIB/src/graphics.c ****             API_Set_pixel(x, y, color);
 217              		.loc 1 45 22 is_stmt 0 discriminator 1 view .LVU40
 218 0014 E119     		adds	r1, r4, r7
  45:EE_API_LIB/src/graphics.c ****             API_Set_pixel(x, y, color);
 219              		.loc 1 45 9 discriminator 1 view .LVU41
 220 0016 A142     		cmp	r1, r4
 221 0018 09D9     		bls	.L23
 222              		.loc 1 46 13 is_stmt 1 discriminator 2 view .LVU42
 223              	.LVL15:
 224              	.LBB44:
ARM GAS  /tmp/ccNlbooB.s 			page 6


 225              	.LBI44:
  26:EE_API_LIB/src/graphics.c **** {
 226              		.loc 1 26 13 discriminator 2 view .LVU43
 227              	.LBB45:
  28:EE_API_LIB/src/graphics.c ****         return;
 228              		.loc 1 28 5 discriminator 2 view .LVU44
  28:EE_API_LIB/src/graphics.c ****         return;
 229              		.loc 1 28 29 is_stmt 0 discriminator 2 view .LVU45
 230 001a 0849     		ldr	r1, .L24
 231 001c 0D68     		ldr	r5, [r1]
  28:EE_API_LIB/src/graphics.c ****         return;
 232              		.loc 1 28 8 discriminator 2 view .LVU46
 233 001e 002D     		cmp	r5, #0
 234 0020 F7D0     		beq	.L19
  31:EE_API_LIB/src/graphics.c **** }
 235              		.loc 1 31 5 is_stmt 1 view .LVU47
 236 0022 5FFA88F2 		uxtb	r2, r8
 237 0026 2146     		mov	r1, r4
 238 0028 3046     		mov	r0, r6
 239 002a A847     		blx	r5
 240              	.LVL16:
 241 002c F1E7     		b	.L19
 242              	.LVL17:
 243              	.L23:
  31:EE_API_LIB/src/graphics.c **** }
 244              		.loc 1 31 5 is_stmt 0 view .LVU48
 245              	.LBE45:
 246              	.LBE44:
  44:EE_API_LIB/src/graphics.c ****         for (; y < y + h; y++)
 247              		.loc 1 44 23 is_stmt 1 view .LVU49
  44:EE_API_LIB/src/graphics.c ****         for (; y < y + h; y++)
 248              		.loc 1 44 24 is_stmt 0 view .LVU50
 249 002e 0136     		adds	r6, r6, #1
 250              	.LVL18:
 251              	.L18:
  44:EE_API_LIB/src/graphics.c ****         for (; y < y + h; y++)
 252              		.loc 1 44 12 is_stmt 1 discriminator 1 view .LVU51
  44:EE_API_LIB/src/graphics.c ****         for (; y < y + h; y++)
 253              		.loc 1 44 18 is_stmt 0 discriminator 1 view .LVU52
 254 0030 06EB0903 		add	r3, r6, r9
  44:EE_API_LIB/src/graphics.c ****         for (; y < y + h; y++)
 255              		.loc 1 44 5 discriminator 1 view .LVU53
 256 0034 B342     		cmp	r3, r6
 257 0036 EDD8     		bhi	.L21
  47:EE_API_LIB/src/graphics.c **** }
 258              		.loc 1 47 1 view .LVU54
 259 0038 BDE8F883 		pop	{r3, r4, r5, r6, r7, r8, r9, pc}
 260              	.LVL19:
 261              	.L25:
 262              		.loc 1 47 1 view .LVU55
 263              		.align	2
 264              	.L24:
 265 003c 00000000 		.word	_set_pixel_callback
 266              		.cfi_endproc
 267              	.LFE2:
 269              		.section	.text.API_Draw_line,"ax",%progbits
 270              		.align	1
ARM GAS  /tmp/ccNlbooB.s 			page 7


 271              		.global	API_Draw_line
 272              		.syntax unified
 273              		.thumb
 274              		.thumb_func
 275              		.fpu fpv4-sp-d16
 277              	API_Draw_line:
 278              	.LVL20:
 279              	.LFB3:
  48:EE_API_LIB/src/graphics.c **** 
  49:EE_API_LIB/src/graphics.c **** void API_Draw_line(int32_t xA, int32_t yA, int32_t xB, int32_t yB, uint8_t color)
  50:EE_API_LIB/src/graphics.c **** {
 280              		.loc 1 50 1 is_stmt 1 view -0
 281              		.cfi_startproc
 282              		@ args = 4, pretend = 0, frame = 8
 283              		@ frame_needed = 0, uses_anonymous_args = 0
 284              		.loc 1 50 1 is_stmt 0 view .LVU57
 285 0000 2DE9F04F 		push	{r4, r5, r6, r7, r8, r9, r10, fp, lr}
 286              	.LCFI3:
 287              		.cfi_def_cfa_offset 36
 288              		.cfi_offset 4, -36
 289              		.cfi_offset 5, -32
 290              		.cfi_offset 6, -28
 291              		.cfi_offset 7, -24
 292              		.cfi_offset 8, -20
 293              		.cfi_offset 9, -16
 294              		.cfi_offset 10, -12
 295              		.cfi_offset 11, -8
 296              		.cfi_offset 14, -4
 297 0004 83B0     		sub	sp, sp, #12
 298              	.LCFI4:
 299              		.cfi_def_cfa_offset 48
 300 0006 0446     		mov	r4, r0
 301 0008 0D46     		mov	r5, r1
 302 000a 0092     		str	r2, [sp]
 303 000c 1E46     		mov	r6, r3
 304 000e 9DF83080 		ldrb	r8, [sp, #48]	@ zero_extendqisi2
  51:EE_API_LIB/src/graphics.c ****     int dx = abs(xB - xA);
 305              		.loc 1 51 5 is_stmt 1 view .LVU58
 306              		.loc 1 51 14 is_stmt 0 view .LVU59
 307 0012 B2EB000A 		subs	r10, r2, r0
 308 0016 1AD4     		bmi	.L57
 309              	.L27:
 310              	.LVL21:
  52:EE_API_LIB/src/graphics.c ****     int sx = xA < xB ? 1 : -1;
 311              		.loc 1 52 5 is_stmt 1 discriminator 4 view .LVU60
 312              		.loc 1 52 26 is_stmt 0 discriminator 4 view .LVU61
 313 0018 009B     		ldr	r3, [sp]
 314              	.LVL22:
 315              		.loc 1 52 26 discriminator 4 view .LVU62
 316 001a A342     		cmp	r3, r4
 317 001c 1ADD     		ble	.L53
 318              		.loc 1 52 26 view .LVU63
 319 001e 0123     		movs	r3, #1
 320 0020 0193     		str	r3, [sp, #4]
 321              	.L28:
 322              	.LVL23:
  53:EE_API_LIB/src/graphics.c **** 
ARM GAS  /tmp/ccNlbooB.s 			page 8


  54:EE_API_LIB/src/graphics.c ****     int dy = -abs(yB - yA);
 323              		.loc 1 54 5 is_stmt 1 discriminator 4 view .LVU64
 324              		.loc 1 54 15 is_stmt 0 discriminator 4 view .LVU65
 325 0022 731B     		subs	r3, r6, r5
 326              		.loc 1 54 14 discriminator 4 view .LVU66
 327 0024 002B     		cmp	r3, #0
 328 0026 19DB     		blt	.L58
 329              		.loc 1 54 14 discriminator 2 view .LVU67
 330 0028 A5EB060B 		sub	fp, r5, r6
 331              	.L30:
 332              	.LVL24:
  55:EE_API_LIB/src/graphics.c ****     int sy = yA < yB ? 1 : -1;
 333              		.loc 1 55 5 is_stmt 1 discriminator 4 view .LVU68
 334              		.loc 1 55 26 is_stmt 0 discriminator 4 view .LVU69
 335 002c AE42     		cmp	r6, r5
 336 002e 1ADD     		ble	.L54
 337              		.loc 1 55 26 view .LVU70
 338 0030 4FF00109 		mov	r9, #1
 339              	.L31:
 340              	.LVL25:
  56:EE_API_LIB/src/graphics.c **** 
  57:EE_API_LIB/src/graphics.c ****     int err = dx + dy, e2; /* error value e_xy */
 341              		.loc 1 57 5 is_stmt 1 discriminator 4 view .LVU71
 342              		.loc 1 57 9 is_stmt 0 discriminator 4 view .LVU72
 343 0034 0AEB0B07 		add	r7, r10, fp
 344              	.LVL26:
  58:EE_API_LIB/src/graphics.c **** 
  59:EE_API_LIB/src/graphics.c ****     if (dx == 0)
 345              		.loc 1 59 5 is_stmt 1 discriminator 4 view .LVU73
 346              		.loc 1 59 8 is_stmt 0 discriminator 4 view .LVU74
 347 0038 BAF1000F 		cmp	r10, #0
 348 003c 2AD1     		bne	.L32
  60:EE_API_LIB/src/graphics.c ****         for (uint32_t y = (sy ? yA : yB); y < (sy ? yB : yA); y++)
 349              		.loc 1 60 9 is_stmt 1 view .LVU75
 350              	.LBB46:
 351              		.loc 1 60 14 view .LVU76
 352              		.loc 1 60 36 is_stmt 0 view .LVU77
 353 003e B9F1000F 		cmp	r9, #0
 354 0042 13D0     		beq	.L33
 355              		.loc 1 60 36 discriminator 1 view .LVU78
 356 0044 2F46     		mov	r7, r5
 357              	.LVL27:
 358              		.loc 1 60 36 discriminator 1 view .LVU79
 359 0046 2346     		mov	r3, r4
 360 0048 4C46     		mov	r4, r9
 361 004a 9946     		mov	r9, r3
 362              	.LVL28:
 363              		.loc 1 60 36 discriminator 1 view .LVU80
 364 004c 1EE0     		b	.L36
 365              	.LVL29:
 366              	.L57:
 367              		.loc 1 60 36 discriminator 1 view .LVU81
 368              	.LBE46:
  51:EE_API_LIB/src/graphics.c ****     int sx = xA < xB ? 1 : -1;
 369              		.loc 1 51 14 discriminator 1 view .LVU82
 370 004e 02EB000A 		add	r10, r2, r0
 371 0052 E1E7     		b	.L27
ARM GAS  /tmp/ccNlbooB.s 			page 9


 372              	.LVL30:
 373              	.L53:
  52:EE_API_LIB/src/graphics.c **** 
 374              		.loc 1 52 26 view .LVU83
 375 0054 4FF0FF33 		mov	r3, #-1
 376 0058 0193     		str	r3, [sp, #4]
 377 005a E2E7     		b	.L28
 378              	.LVL31:
 379              	.L58:
  54:EE_API_LIB/src/graphics.c ****     int sy = yA < yB ? 1 : -1;
 380              		.loc 1 54 15 discriminator 1 view .LVU84
 381 005c 06EB050B 		add	fp, r6, r5
  54:EE_API_LIB/src/graphics.c ****     int sy = yA < yB ? 1 : -1;
 382              		.loc 1 54 14 discriminator 1 view .LVU85
 383 0060 CBF1000B 		rsb	fp, fp, #0
 384 0064 E2E7     		b	.L30
 385              	.LVL32:
 386              	.L54:
  55:EE_API_LIB/src/graphics.c **** 
 387              		.loc 1 55 26 view .LVU86
 388 0066 4FF0FF39 		mov	r9, #-1
 389 006a E3E7     		b	.L31
 390              	.LVL33:
 391              	.L33:
 392              	.LBB49:
 393              		.loc 1 60 36 discriminator 2 view .LVU87
 394 006c 3746     		mov	r7, r6
 395              	.LVL34:
 396              		.loc 1 60 36 discriminator 2 view .LVU88
 397 006e 2346     		mov	r3, r4
 398 0070 4C46     		mov	r4, r9
 399 0072 9946     		mov	r9, r3
 400              	.LVL35:
 401              		.loc 1 60 36 discriminator 2 view .LVU89
 402 0074 0AE0     		b	.L36
 403              	.LVL36:
 404              	.L59:
 405              		.loc 1 60 56 discriminator 7 view .LVU90
 406 0076 3346     		mov	r3, r6
 407              	.L38:
 408              		.loc 1 60 9 discriminator 10 view .LVU91
 409 0078 9F42     		cmp	r7, r3
 410 007a 3CD2     		bcs	.L26
  61:EE_API_LIB/src/graphics.c ****         {
  62:EE_API_LIB/src/graphics.c ****             API_Set_pixel(xA, y, color);
 411              		.loc 1 62 13 is_stmt 1 discriminator 11 view .LVU92
 412              	.LVL37:
 413              	.LBB47:
 414              	.LBI47:
  26:EE_API_LIB/src/graphics.c **** {
 415              		.loc 1 26 13 discriminator 11 view .LVU93
 416              	.LBB48:
  28:EE_API_LIB/src/graphics.c ****         return;
 417              		.loc 1 28 5 discriminator 11 view .LVU94
  28:EE_API_LIB/src/graphics.c ****         return;
 418              		.loc 1 28 29 is_stmt 0 discriminator 11 view .LVU95
 419 007c 1F4B     		ldr	r3, .L60
ARM GAS  /tmp/ccNlbooB.s 			page 10


 420 007e 1B68     		ldr	r3, [r3]
  28:EE_API_LIB/src/graphics.c ****         return;
 421              		.loc 1 28 8 discriminator 11 view .LVU96
 422 0080 1BB1     		cbz	r3, .L35
  31:EE_API_LIB/src/graphics.c **** }
 423              		.loc 1 31 5 is_stmt 1 view .LVU97
 424 0082 4246     		mov	r2, r8
 425 0084 3946     		mov	r1, r7
 426 0086 4846     		mov	r0, r9
 427 0088 9847     		blx	r3
 428              	.LVL38:
 429              	.L35:
  31:EE_API_LIB/src/graphics.c **** }
 430              		.loc 1 31 5 is_stmt 0 view .LVU98
 431              	.LBE48:
 432              	.LBE47:
  60:EE_API_LIB/src/graphics.c ****         {
 433              		.loc 1 60 63 is_stmt 1 view .LVU99
  60:EE_API_LIB/src/graphics.c ****         {
 434              		.loc 1 60 64 is_stmt 0 view .LVU100
 435 008a 0137     		adds	r7, r7, #1
 436              	.LVL39:
 437              	.L36:
  60:EE_API_LIB/src/graphics.c ****         {
 438              		.loc 1 60 43 is_stmt 1 discriminator 5 view .LVU101
  60:EE_API_LIB/src/graphics.c ****         {
 439              		.loc 1 60 56 is_stmt 0 discriminator 5 view .LVU102
 440 008c 002C     		cmp	r4, #0
 441 008e F2D1     		bne	.L59
  60:EE_API_LIB/src/graphics.c ****         {
 442              		.loc 1 60 56 discriminator 8 view .LVU103
 443 0090 2B46     		mov	r3, r5
 444 0092 F1E7     		b	.L38
 445              	.LVL40:
 446              	.L32:
  60:EE_API_LIB/src/graphics.c ****         {
 447              		.loc 1 60 56 discriminator 8 view .LVU104
 448              	.LBE49:
  63:EE_API_LIB/src/graphics.c ****         }
  64:EE_API_LIB/src/graphics.c **** 
  65:EE_API_LIB/src/graphics.c ****     else if (dy == 0)
 449              		.loc 1 65 10 is_stmt 1 view .LVU105
 450              		.loc 1 65 13 is_stmt 0 view .LVU106
 451 0094 BBF1000F 		cmp	fp, #0
 452 0098 15D1     		bne	.L41
  66:EE_API_LIB/src/graphics.c ****         for (uint32_t x = (sx ? xA : xB); x < (sx ? xB : xA); x++)
 453              		.loc 1 66 9 is_stmt 1 view .LVU107
 454              	.LBB50:
 455              		.loc 1 66 14 view .LVU108
 456              		.loc 1 66 36 is_stmt 0 view .LVU109
 457 009a 019F     		ldr	r7, [sp, #4]
 458              	.LVL41:
 459              		.loc 1 66 36 view .LVU110
 460 009c 0FB1     		cbz	r7, .L42
 461              		.loc 1 66 36 discriminator 1 view .LVU111
 462 009e 2646     		mov	r6, r4
 463              	.LVL42:
ARM GAS  /tmp/ccNlbooB.s 			page 11


 464              		.loc 1 66 36 discriminator 1 view .LVU112
 465 00a0 0DE0     		b	.L45
 466              	.LVL43:
 467              	.L42:
 468              		.loc 1 66 36 discriminator 2 view .LVU113
 469 00a2 009E     		ldr	r6, [sp]
 470              	.LVL44:
 471              		.loc 1 66 36 discriminator 2 view .LVU114
 472 00a4 019F     		ldr	r7, [sp, #4]
 473 00a6 0AE0     		b	.L45
 474              	.LVL45:
 475              	.L46:
 476              		.loc 1 66 56 discriminator 8 view .LVU115
 477 00a8 2346     		mov	r3, r4
 478              	.L47:
 479              		.loc 1 66 9 discriminator 10 view .LVU116
 480 00aa 9E42     		cmp	r6, r3
 481 00ac 23D2     		bcs	.L26
  67:EE_API_LIB/src/graphics.c ****         {
  68:EE_API_LIB/src/graphics.c ****             API_Set_pixel(x, yA, color);
 482              		.loc 1 68 13 is_stmt 1 discriminator 11 view .LVU117
 483              	.LVL46:
 484              	.LBB51:
 485              	.LBI51:
  26:EE_API_LIB/src/graphics.c **** {
 486              		.loc 1 26 13 discriminator 11 view .LVU118
 487              	.LBB52:
  28:EE_API_LIB/src/graphics.c ****         return;
 488              		.loc 1 28 5 discriminator 11 view .LVU119
  28:EE_API_LIB/src/graphics.c ****         return;
 489              		.loc 1 28 29 is_stmt 0 discriminator 11 view .LVU120
 490 00ae 134B     		ldr	r3, .L60
 491 00b0 1B68     		ldr	r3, [r3]
  28:EE_API_LIB/src/graphics.c ****         return;
 492              		.loc 1 28 8 discriminator 11 view .LVU121
 493 00b2 1BB1     		cbz	r3, .L44
  31:EE_API_LIB/src/graphics.c **** }
 494              		.loc 1 31 5 is_stmt 1 view .LVU122
 495 00b4 4246     		mov	r2, r8
 496 00b6 2946     		mov	r1, r5
 497 00b8 3046     		mov	r0, r6
 498 00ba 9847     		blx	r3
 499              	.LVL47:
 500              	.L44:
  31:EE_API_LIB/src/graphics.c **** }
 501              		.loc 1 31 5 is_stmt 0 view .LVU123
 502              	.LBE52:
 503              	.LBE51:
  66:EE_API_LIB/src/graphics.c ****         {
 504              		.loc 1 66 63 is_stmt 1 view .LVU124
  66:EE_API_LIB/src/graphics.c ****         {
 505              		.loc 1 66 64 is_stmt 0 view .LVU125
 506 00bc 0136     		adds	r6, r6, #1
 507              	.LVL48:
 508              	.L45:
  66:EE_API_LIB/src/graphics.c ****         {
 509              		.loc 1 66 43 is_stmt 1 discriminator 5 view .LVU126
ARM GAS  /tmp/ccNlbooB.s 			page 12


  66:EE_API_LIB/src/graphics.c ****         {
 510              		.loc 1 66 56 is_stmt 0 discriminator 5 view .LVU127
 511 00be 002F     		cmp	r7, #0
 512 00c0 F2D0     		beq	.L46
  66:EE_API_LIB/src/graphics.c ****         {
 513              		.loc 1 66 56 discriminator 7 view .LVU128
 514 00c2 009B     		ldr	r3, [sp]
 515 00c4 F1E7     		b	.L47
 516              	.LVL49:
 517              	.L41:
  66:EE_API_LIB/src/graphics.c ****         {
 518              		.loc 1 66 56 discriminator 7 view .LVU129
 519              	.LBE50:
  69:EE_API_LIB/src/graphics.c ****         }
  70:EE_API_LIB/src/graphics.c ****     else
  71:EE_API_LIB/src/graphics.c ****         while (xA != xB && yA != yB)
 520              		.loc 1 71 15 is_stmt 1 view .LVU130
 521 00c6 009B     		ldr	r3, [sp]
 522 00c8 9C42     		cmp	r4, r3
 523 00ca 14D0     		beq	.L26
 524              		.loc 1 71 25 is_stmt 0 discriminator 1 view .LVU131
 525 00cc B542     		cmp	r5, r6
 526 00ce 12D0     		beq	.L26
  72:EE_API_LIB/src/graphics.c ****         { /* loop */
  73:EE_API_LIB/src/graphics.c ****             API_Set_pixel(xA, yA, color);
 527              		.loc 1 73 13 is_stmt 1 view .LVU132
 528              	.LVL50:
 529              	.LBB53:
 530              	.LBI53:
  26:EE_API_LIB/src/graphics.c **** {
 531              		.loc 1 26 13 view .LVU133
 532              	.LBB54:
  28:EE_API_LIB/src/graphics.c ****         return;
 533              		.loc 1 28 5 view .LVU134
  28:EE_API_LIB/src/graphics.c ****         return;
 534              		.loc 1 28 29 is_stmt 0 view .LVU135
 535 00d0 0A4B     		ldr	r3, .L60
 536 00d2 1B68     		ldr	r3, [r3]
  28:EE_API_LIB/src/graphics.c ****         return;
 537              		.loc 1 28 8 view .LVU136
 538 00d4 1BB1     		cbz	r3, .L49
  31:EE_API_LIB/src/graphics.c **** }
 539              		.loc 1 31 5 is_stmt 1 view .LVU137
 540 00d6 4246     		mov	r2, r8
 541 00d8 2946     		mov	r1, r5
 542 00da 2046     		mov	r0, r4
 543 00dc 9847     		blx	r3
 544              	.LVL51:
 545              	.L49:
  31:EE_API_LIB/src/graphics.c **** }
 546              		.loc 1 31 5 is_stmt 0 view .LVU138
 547              	.LBE54:
 548              	.LBE53:
  74:EE_API_LIB/src/graphics.c **** 
  75:EE_API_LIB/src/graphics.c ****             e2 = 2 * err;
 549              		.loc 1 75 13 is_stmt 1 view .LVU139
 550              		.loc 1 75 16 is_stmt 0 view .LVU140
ARM GAS  /tmp/ccNlbooB.s 			page 13


 551 00de 7B00     		lsls	r3, r7, #1
 552              	.LVL52:
  76:EE_API_LIB/src/graphics.c ****             if (e2 >= dy)
 553              		.loc 1 76 13 is_stmt 1 view .LVU141
 554              		.loc 1 76 16 is_stmt 0 view .LVU142
 555 00e0 BBEB470F 		cmp	fp, r7, lsl #1
 556 00e4 02DC     		bgt	.L50
  77:EE_API_LIB/src/graphics.c ****             {
  78:EE_API_LIB/src/graphics.c ****                 err += dy;
 557              		.loc 1 78 17 is_stmt 1 view .LVU143
 558              		.loc 1 78 21 is_stmt 0 view .LVU144
 559 00e6 5F44     		add	r7, r7, fp
 560              	.LVL53:
  79:EE_API_LIB/src/graphics.c ****                 xA += sx;
 561              		.loc 1 79 17 is_stmt 1 view .LVU145
 562              		.loc 1 79 20 is_stmt 0 view .LVU146
 563 00e8 019A     		ldr	r2, [sp, #4]
 564 00ea 1444     		add	r4, r4, r2
 565              	.LVL54:
 566              	.L50:
  80:EE_API_LIB/src/graphics.c ****             } /* e_xy+e_x > 0 */
  81:EE_API_LIB/src/graphics.c ****             if (e2 <= dx)
 567              		.loc 1 81 13 is_stmt 1 view .LVU147
 568              		.loc 1 81 16 is_stmt 0 view .LVU148
 569 00ec 9A45     		cmp	r10, r3
 570 00ee EADB     		blt	.L41
  82:EE_API_LIB/src/graphics.c ****             {
  83:EE_API_LIB/src/graphics.c ****                 err += dx;
 571              		.loc 1 83 17 is_stmt 1 view .LVU149
 572              		.loc 1 83 21 is_stmt 0 view .LVU150
 573 00f0 5744     		add	r7, r7, r10
 574              	.LVL55:
  84:EE_API_LIB/src/graphics.c ****                 yA += sy;
 575              		.loc 1 84 17 is_stmt 1 view .LVU151
 576              		.loc 1 84 20 is_stmt 0 view .LVU152
 577 00f2 4D44     		add	r5, r5, r9
 578              	.LVL56:
 579              		.loc 1 84 20 view .LVU153
 580 00f4 E7E7     		b	.L41
 581              	.LVL57:
 582              	.L26:
  85:EE_API_LIB/src/graphics.c ****             } /* e_xy+e_y < 0 */
  86:EE_API_LIB/src/graphics.c ****         }
  87:EE_API_LIB/src/graphics.c **** }
 583              		.loc 1 87 1 view .LVU154
 584 00f6 03B0     		add	sp, sp, #12
 585              	.LCFI5:
 586              		.cfi_def_cfa_offset 36
 587              	.LVL58:
 588              		.loc 1 87 1 view .LVU155
 589              		@ sp needed
 590 00f8 BDE8F08F 		pop	{r4, r5, r6, r7, r8, r9, r10, fp, pc}
 591              	.LVL59:
 592              	.L61:
 593              		.loc 1 87 1 view .LVU156
 594              		.align	2
 595              	.L60:
ARM GAS  /tmp/ccNlbooB.s 			page 14


 596 00fc 00000000 		.word	_set_pixel_callback
 597              		.cfi_endproc
 598              	.LFE3:
 600              		.section	.text.API_Draw_circle,"ax",%progbits
 601              		.align	1
 602              		.global	API_Draw_circle
 603              		.syntax unified
 604              		.thumb
 605              		.thumb_func
 606              		.fpu fpv4-sp-d16
 608              	API_Draw_circle:
 609              	.LVL60:
 610              	.LFB4:
  88:EE_API_LIB/src/graphics.c **** 
  89:EE_API_LIB/src/graphics.c **** void API_Draw_circle(int32_t xm, int32_t ym, uint32_t radius, uint8_t color)
  90:EE_API_LIB/src/graphics.c **** {
 611              		.loc 1 90 1 is_stmt 1 view -0
 612              		.cfi_startproc
 613              		@ args = 0, pretend = 0, frame = 0
 614              		@ frame_needed = 0, uses_anonymous_args = 0
 615              		.loc 1 90 1 is_stmt 0 view .LVU158
 616 0000 2DE9F843 		push	{r3, r4, r5, r6, r7, r8, r9, lr}
 617              	.LCFI6:
 618              		.cfi_def_cfa_offset 32
 619              		.cfi_offset 3, -32
 620              		.cfi_offset 4, -28
 621              		.cfi_offset 5, -24
 622              		.cfi_offset 6, -20
 623              		.cfi_offset 7, -16
 624              		.cfi_offset 8, -12
 625              		.cfi_offset 9, -8
 626              		.cfi_offset 14, -4
 627 0004 8046     		mov	r8, r0
 628 0006 0F46     		mov	r7, r1
 629 0008 9946     		mov	r9, r3
  91:EE_API_LIB/src/graphics.c ****     int x = -radius, y = 0, err = 2 - 2 * radius; /* II. Quadrant */
 630              		.loc 1 91 5 is_stmt 1 view .LVU159
 631              		.loc 1 91 13 is_stmt 0 view .LVU160
 632 000a 5442     		rsbs	r4, r2, #0
 633              	.LVL61:
 634              		.loc 1 91 37 view .LVU161
 635 000c C2F10102 		rsb	r2, r2, #1
 636              	.LVL62:
 637              		.loc 1 91 37 view .LVU162
 638 0010 5600     		lsls	r6, r2, #1
 639              	.LVL63:
 640              		.loc 1 91 22 view .LVU163
 641 0012 0025     		movs	r5, #0
 642 0014 05E0     		b	.L70
 643              	.LVL64:
 644              	.L68:
  92:EE_API_LIB/src/graphics.c ****     do
  93:EE_API_LIB/src/graphics.c ****     {
  94:EE_API_LIB/src/graphics.c ****         API_Set_pixel(xm - x, ym + y, color); /*   I. Quadrant */
  95:EE_API_LIB/src/graphics.c ****         API_Set_pixel(xm - y, ym - x, color); /*  II. Quadrant */
  96:EE_API_LIB/src/graphics.c ****         API_Set_pixel(xm + x, ym - y, color); /* III. Quadrant */
  97:EE_API_LIB/src/graphics.c ****         API_Set_pixel(xm + y, ym + x, color); /*  IV. Quadrant */
ARM GAS  /tmp/ccNlbooB.s 			page 15


  98:EE_API_LIB/src/graphics.c ****         radius = err;
  99:EE_API_LIB/src/graphics.c ****         if (radius <= y)
 100:EE_API_LIB/src/graphics.c ****             err += ++y * 2 + 1; /* e_xy+e_y < 0 */
 101:EE_API_LIB/src/graphics.c ****         if (radius > x || err > y)
 102:EE_API_LIB/src/graphics.c ****             err += ++x * 2 + 1; /* e_xy+e_x > 0 or no 2nd y-step */
 645              		.loc 1 102 13 is_stmt 1 view .LVU164
 646              		.loc 1 102 28 is_stmt 0 view .LVU165
 647 0016 0134     		adds	r4, r4, #1
 648              	.LVL65:
 649              		.loc 1 102 24 view .LVU166
 650 0018 6300     		lsls	r3, r4, #1
 651              	.LVL66:
 652              		.loc 1 102 28 view .LVU167
 653 001a 0133     		adds	r3, r3, #1
 654              		.loc 1 102 17 view .LVU168
 655 001c 1E44     		add	r6, r6, r3
 656              	.LVL67:
 657              	.L69:
 103:EE_API_LIB/src/graphics.c ****     } while (x < 0);
 658              		.loc 1 103 13 is_stmt 1 view .LVU169
 659              		.loc 1 103 5 is_stmt 0 view .LVU170
 660 001e 002C     		cmp	r4, #0
 661 0020 2BDA     		bge	.L72
 662              	.LVL68:
 663              	.L70:
  92:EE_API_LIB/src/graphics.c ****     do
 664              		.loc 1 92 5 is_stmt 1 view .LVU171
  94:EE_API_LIB/src/graphics.c ****         API_Set_pixel(xm - y, ym - x, color); /*  II. Quadrant */
 665              		.loc 1 94 9 view .LVU172
 666 0022 A8EB0400 		sub	r0, r8, r4
 667 0026 E919     		adds	r1, r5, r7
 668              	.LVL69:
 669              	.LBB55:
 670              	.LBI55:
  26:EE_API_LIB/src/graphics.c **** {
 671              		.loc 1 26 13 view .LVU173
 672              	.LBB56:
  28:EE_API_LIB/src/graphics.c ****         return;
 673              		.loc 1 28 5 view .LVU174
  28:EE_API_LIB/src/graphics.c ****         return;
 674              		.loc 1 28 29 is_stmt 0 view .LVU175
 675 0028 154B     		ldr	r3, .L73
 676 002a 1B68     		ldr	r3, [r3]
  28:EE_API_LIB/src/graphics.c ****         return;
 677              		.loc 1 28 8 view .LVU176
 678 002c 0BB1     		cbz	r3, .L63
  31:EE_API_LIB/src/graphics.c **** }
 679              		.loc 1 31 5 is_stmt 1 view .LVU177
 680 002e 4A46     		mov	r2, r9
 681 0030 9847     		blx	r3
 682              	.LVL70:
 683              	.L63:
  31:EE_API_LIB/src/graphics.c **** }
 684              		.loc 1 31 5 is_stmt 0 view .LVU178
 685              	.LBE56:
 686              	.LBE55:
  95:EE_API_LIB/src/graphics.c ****         API_Set_pixel(xm + x, ym - y, color); /* III. Quadrant */
ARM GAS  /tmp/ccNlbooB.s 			page 16


 687              		.loc 1 95 9 is_stmt 1 view .LVU179
 688 0032 A8EB0500 		sub	r0, r8, r5
 689 0036 391B     		subs	r1, r7, r4
 690              	.LVL71:
 691              	.LBB57:
 692              	.LBI57:
  26:EE_API_LIB/src/graphics.c **** {
 693              		.loc 1 26 13 view .LVU180
 694              	.LBB58:
  28:EE_API_LIB/src/graphics.c ****         return;
 695              		.loc 1 28 5 view .LVU181
  28:EE_API_LIB/src/graphics.c ****         return;
 696              		.loc 1 28 29 is_stmt 0 view .LVU182
 697 0038 114B     		ldr	r3, .L73
 698 003a 1B68     		ldr	r3, [r3]
  28:EE_API_LIB/src/graphics.c ****         return;
 699              		.loc 1 28 8 view .LVU183
 700 003c 0BB1     		cbz	r3, .L64
  31:EE_API_LIB/src/graphics.c **** }
 701              		.loc 1 31 5 is_stmt 1 view .LVU184
 702 003e 4A46     		mov	r2, r9
 703 0040 9847     		blx	r3
 704              	.LVL72:
 705              	.L64:
  31:EE_API_LIB/src/graphics.c **** }
 706              		.loc 1 31 5 is_stmt 0 view .LVU185
 707              	.LBE58:
 708              	.LBE57:
  96:EE_API_LIB/src/graphics.c ****         API_Set_pixel(xm + y, ym + x, color); /*  IV. Quadrant */
 709              		.loc 1 96 9 is_stmt 1 view .LVU186
 710 0042 04EB0800 		add	r0, r4, r8
 711 0046 791B     		subs	r1, r7, r5
 712              	.LVL73:
 713              	.LBB59:
 714              	.LBI59:
  26:EE_API_LIB/src/graphics.c **** {
 715              		.loc 1 26 13 view .LVU187
 716              	.LBB60:
  28:EE_API_LIB/src/graphics.c ****         return;
 717              		.loc 1 28 5 view .LVU188
  28:EE_API_LIB/src/graphics.c ****         return;
 718              		.loc 1 28 29 is_stmt 0 view .LVU189
 719 0048 0D4B     		ldr	r3, .L73
 720 004a 1B68     		ldr	r3, [r3]
  28:EE_API_LIB/src/graphics.c ****         return;
 721              		.loc 1 28 8 view .LVU190
 722 004c 0BB1     		cbz	r3, .L65
  31:EE_API_LIB/src/graphics.c **** }
 723              		.loc 1 31 5 is_stmt 1 view .LVU191
 724 004e 4A46     		mov	r2, r9
 725 0050 9847     		blx	r3
 726              	.LVL74:
 727              	.L65:
  31:EE_API_LIB/src/graphics.c **** }
 728              		.loc 1 31 5 is_stmt 0 view .LVU192
 729              	.LBE60:
 730              	.LBE59:
ARM GAS  /tmp/ccNlbooB.s 			page 17


  97:EE_API_LIB/src/graphics.c ****         radius = err;
 731              		.loc 1 97 9 is_stmt 1 view .LVU193
 732 0052 05EB0800 		add	r0, r5, r8
 733 0056 E119     		adds	r1, r4, r7
 734              	.LVL75:
 735              	.LBB61:
 736              	.LBI61:
  26:EE_API_LIB/src/graphics.c **** {
 737              		.loc 1 26 13 view .LVU194
 738              	.LBB62:
  28:EE_API_LIB/src/graphics.c ****         return;
 739              		.loc 1 28 5 view .LVU195
  28:EE_API_LIB/src/graphics.c ****         return;
 740              		.loc 1 28 29 is_stmt 0 view .LVU196
 741 0058 094B     		ldr	r3, .L73
 742 005a 1B68     		ldr	r3, [r3]
  28:EE_API_LIB/src/graphics.c ****         return;
 743              		.loc 1 28 8 view .LVU197
 744 005c 0BB1     		cbz	r3, .L66
  31:EE_API_LIB/src/graphics.c **** }
 745              		.loc 1 31 5 is_stmt 1 view .LVU198
 746 005e 4A46     		mov	r2, r9
 747 0060 9847     		blx	r3
 748              	.LVL76:
 749              	.L66:
  31:EE_API_LIB/src/graphics.c **** }
 750              		.loc 1 31 5 is_stmt 0 view .LVU199
 751              	.LBE62:
 752              	.LBE61:
  98:EE_API_LIB/src/graphics.c ****         if (radius <= y)
 753              		.loc 1 98 9 is_stmt 1 view .LVU200
  98:EE_API_LIB/src/graphics.c ****         if (radius <= y)
 754              		.loc 1 98 16 is_stmt 0 view .LVU201
 755 0062 3346     		mov	r3, r6
 756              	.LVL77:
  99:EE_API_LIB/src/graphics.c ****             err += ++y * 2 + 1; /* e_xy+e_y < 0 */
 757              		.loc 1 99 9 is_stmt 1 view .LVU202
  99:EE_API_LIB/src/graphics.c ****             err += ++y * 2 + 1; /* e_xy+e_y < 0 */
 758              		.loc 1 99 12 is_stmt 0 view .LVU203
 759 0064 B542     		cmp	r5, r6
 760 0066 03D3     		bcc	.L67
 761              	.LVL78:
 100:EE_API_LIB/src/graphics.c ****         if (radius > x || err > y)
 762              		.loc 1 100 13 is_stmt 1 view .LVU204
 100:EE_API_LIB/src/graphics.c ****         if (radius > x || err > y)
 763              		.loc 1 100 28 is_stmt 0 view .LVU205
 764 0068 0135     		adds	r5, r5, #1
 765              	.LVL79:
 100:EE_API_LIB/src/graphics.c ****         if (radius > x || err > y)
 766              		.loc 1 100 24 view .LVU206
 767 006a 6A00     		lsls	r2, r5, #1
 100:EE_API_LIB/src/graphics.c ****         if (radius > x || err > y)
 768              		.loc 1 100 28 view .LVU207
 769 006c 0132     		adds	r2, r2, #1
 100:EE_API_LIB/src/graphics.c ****         if (radius > x || err > y)
 770              		.loc 1 100 17 view .LVU208
 771 006e 1644     		add	r6, r6, r2
ARM GAS  /tmp/ccNlbooB.s 			page 18


 772              	.LVL80:
 773              	.L67:
 101:EE_API_LIB/src/graphics.c ****             err += ++x * 2 + 1; /* e_xy+e_x > 0 or no 2nd y-step */
 774              		.loc 1 101 9 is_stmt 1 view .LVU209
 101:EE_API_LIB/src/graphics.c ****             err += ++x * 2 + 1; /* e_xy+e_x > 0 or no 2nd y-step */
 775              		.loc 1 101 12 is_stmt 0 view .LVU210
 776 0070 9C42     		cmp	r4, r3
 777 0072 D0D3     		bcc	.L68
 101:EE_API_LIB/src/graphics.c ****             err += ++x * 2 + 1; /* e_xy+e_x > 0 or no 2nd y-step */
 778              		.loc 1 101 24 discriminator 1 view .LVU211
 779 0074 B542     		cmp	r5, r6
 780 0076 D2DA     		bge	.L69
 781 0078 CDE7     		b	.L68
 782              	.LVL81:
 783              	.L72:
 104:EE_API_LIB/src/graphics.c **** }
 784              		.loc 1 104 1 view .LVU212
 785 007a BDE8F883 		pop	{r3, r4, r5, r6, r7, r8, r9, pc}
 786              	.LVL82:
 787              	.L74:
 788              		.loc 1 104 1 view .LVU213
 789 007e 00BF     		.align	2
 790              	.L73:
 791 0080 00000000 		.word	_set_pixel_callback
 792              		.cfi_endproc
 793              	.LFE4:
 795              		.section	.text.API_Fill_circle,"ax",%progbits
 796              		.align	1
 797              		.global	API_Fill_circle
 798              		.syntax unified
 799              		.thumb
 800              		.thumb_func
 801              		.fpu fpv4-sp-d16
 803              	API_Fill_circle:
 804              	.LVL83:
 805              	.LFB5:
 105:EE_API_LIB/src/graphics.c **** 
 106:EE_API_LIB/src/graphics.c **** void API_Fill_circle(uint32_t xm, uint32_t ym, uint32_t r, uint8_t color)
 107:EE_API_LIB/src/graphics.c **** {
 806              		.loc 1 107 1 is_stmt 1 view -0
 807              		.cfi_startproc
 808              		@ args = 0, pretend = 0, frame = 0
 809              		@ frame_needed = 0, uses_anonymous_args = 0
 810              		.loc 1 107 1 is_stmt 0 view .LVU215
 811 0000 F8B5     		push	{r3, r4, r5, r6, r7, lr}
 812              	.LCFI7:
 813              		.cfi_def_cfa_offset 24
 814              		.cfi_offset 3, -24
 815              		.cfi_offset 4, -20
 816              		.cfi_offset 5, -16
 817              		.cfi_offset 6, -12
 818              		.cfi_offset 7, -8
 819              		.cfi_offset 14, -4
 820 0002 0746     		mov	r7, r0
 821 0004 0E46     		mov	r6, r1
 822 0006 1D46     		mov	r5, r3
 108:EE_API_LIB/src/graphics.c ****     for (int ra = r; ra > 0; ra--)
ARM GAS  /tmp/ccNlbooB.s 			page 19


 823              		.loc 1 108 5 is_stmt 1 view .LVU216
 824              	.LBB63:
 825              		.loc 1 108 10 view .LVU217
 826              		.loc 1 108 14 is_stmt 0 view .LVU218
 827 0008 1446     		mov	r4, r2
 828              	.LVL84:
 829              	.L76:
 830              		.loc 1 108 22 is_stmt 1 discriminator 1 view .LVU219
 831              		.loc 1 108 5 is_stmt 0 discriminator 1 view .LVU220
 832 000a 002C     		cmp	r4, #0
 833 000c 07DD     		ble	.L79
 109:EE_API_LIB/src/graphics.c ****         API_Draw_circle(xm, ym, ra, color);
 834              		.loc 1 109 9 is_stmt 1 discriminator 3 view .LVU221
 835 000e 2B46     		mov	r3, r5
 836 0010 2246     		mov	r2, r4
 837 0012 3146     		mov	r1, r6
 838 0014 3846     		mov	r0, r7
 839 0016 FFF7FEFF 		bl	API_Draw_circle
 840              	.LVL85:
 108:EE_API_LIB/src/graphics.c ****     for (int ra = r; ra > 0; ra--)
 841              		.loc 1 108 30 discriminator 3 view .LVU222
 108:EE_API_LIB/src/graphics.c ****     for (int ra = r; ra > 0; ra--)
 842              		.loc 1 108 32 is_stmt 0 discriminator 3 view .LVU223
 843 001a 013C     		subs	r4, r4, #1
 844              	.LVL86:
 108:EE_API_LIB/src/graphics.c ****     for (int ra = r; ra > 0; ra--)
 845              		.loc 1 108 32 discriminator 3 view .LVU224
 846 001c F5E7     		b	.L76
 847              	.L79:
 108:EE_API_LIB/src/graphics.c ****     for (int ra = r; ra > 0; ra--)
 848              		.loc 1 108 32 discriminator 3 view .LVU225
 849              	.LBE63:
 110:EE_API_LIB/src/graphics.c **** }
 850              		.loc 1 110 1 view .LVU226
 851 001e F8BD     		pop	{r3, r4, r5, r6, r7, pc}
 852              		.loc 1 110 1 view .LVU227
 853              		.cfi_endproc
 854              	.LFE5:
 856              		.section	.text.API_Draw_square,"ax",%progbits
 857              		.align	1
 858              		.global	API_Draw_square
 859              		.syntax unified
 860              		.thumb
 861              		.thumb_func
 862              		.fpu fpv4-sp-d16
 864              	API_Draw_square:
 865              	.LVL87:
 866              	.LFB6:
 111:EE_API_LIB/src/graphics.c **** 
 112:EE_API_LIB/src/graphics.c **** void API_Draw_square(int32_t x, int32_t y, uint32_t width, uint32_t height, uint8_t color)
 113:EE_API_LIB/src/graphics.c **** {
 867              		.loc 1 113 1 is_stmt 1 view -0
 868              		.cfi_startproc
 869              		@ args = 4, pretend = 0, frame = 0
 870              		@ frame_needed = 0, uses_anonymous_args = 0
 871              		.loc 1 113 1 is_stmt 0 view .LVU229
 872 0000 2DE9F041 		push	{r4, r5, r6, r7, r8, lr}
ARM GAS  /tmp/ccNlbooB.s 			page 20


 873              	.LCFI8:
 874              		.cfi_def_cfa_offset 24
 875              		.cfi_offset 4, -24
 876              		.cfi_offset 5, -20
 877              		.cfi_offset 6, -16
 878              		.cfi_offset 7, -12
 879              		.cfi_offset 8, -8
 880              		.cfi_offset 14, -4
 881 0004 82B0     		sub	sp, sp, #8
 882              	.LCFI9:
 883              		.cfi_def_cfa_offset 32
 884 0006 0546     		mov	r5, r0
 885 0008 0F46     		mov	r7, r1
 886 000a 1C46     		mov	r4, r3
 887 000c 9DF82080 		ldrb	r8, [sp, #32]	@ zero_extendqisi2
 114:EE_API_LIB/src/graphics.c ****     API_Draw_line(x, y, x + width, y, color);
 888              		.loc 1 114 5 is_stmt 1 view .LVU230
 889              		.loc 1 114 27 is_stmt 0 view .LVU231
 890 0010 8618     		adds	r6, r0, r2
 891              		.loc 1 114 5 view .LVU232
 892 0012 CDF80080 		str	r8, [sp]
 893 0016 0B46     		mov	r3, r1
 894              	.LVL88:
 895              		.loc 1 114 5 view .LVU233
 896 0018 3246     		mov	r2, r6
 897              	.LVL89:
 898              		.loc 1 114 5 view .LVU234
 899 001a FFF7FEFF 		bl	API_Draw_line
 900              	.LVL90:
 115:EE_API_LIB/src/graphics.c ****     API_Draw_line(x, y, x, y + height, color);
 901              		.loc 1 115 5 is_stmt 1 view .LVU235
 902              		.loc 1 115 30 is_stmt 0 view .LVU236
 903 001e 3C44     		add	r4, r4, r7
 904              	.LVL91:
 905              		.loc 1 115 5 view .LVU237
 906 0020 CDF80080 		str	r8, [sp]
 907 0024 2346     		mov	r3, r4
 908 0026 2A46     		mov	r2, r5
 909 0028 3946     		mov	r1, r7
 910 002a 2846     		mov	r0, r5
 911 002c FFF7FEFF 		bl	API_Draw_line
 912              	.LVL92:
 116:EE_API_LIB/src/graphics.c ****     API_Draw_line(x + width, y, x + width, y + height + 1, color);
 913              		.loc 1 116 5 is_stmt 1 view .LVU238
 914 0030 CDF80080 		str	r8, [sp]
 915 0034 631C     		adds	r3, r4, #1
 916 0036 3246     		mov	r2, r6
 917 0038 3946     		mov	r1, r7
 918 003a 3046     		mov	r0, r6
 919 003c FFF7FEFF 		bl	API_Draw_line
 920              	.LVL93:
 117:EE_API_LIB/src/graphics.c ****     API_Draw_line(x, y + height, x + width, y + height, color);
 921              		.loc 1 117 5 view .LVU239
 922 0040 CDF80080 		str	r8, [sp]
 923 0044 2346     		mov	r3, r4
 924 0046 3246     		mov	r2, r6
 925 0048 2146     		mov	r1, r4
ARM GAS  /tmp/ccNlbooB.s 			page 21


 926 004a 2846     		mov	r0, r5
 927 004c FFF7FEFF 		bl	API_Draw_line
 928              	.LVL94:
 118:EE_API_LIB/src/graphics.c **** }
 929              		.loc 1 118 1 is_stmt 0 view .LVU240
 930 0050 02B0     		add	sp, sp, #8
 931              	.LCFI10:
 932              		.cfi_def_cfa_offset 24
 933              		@ sp needed
 934 0052 BDE8F081 		pop	{r4, r5, r6, r7, r8, pc}
 935              		.loc 1 118 1 view .LVU241
 936              		.cfi_endproc
 937              	.LFE6:
 939              		.section	.text.plotEllipseRect,"ax",%progbits
 940              		.align	1
 941              		.global	plotEllipseRect
 942              		.syntax unified
 943              		.thumb
 944              		.thumb_func
 945              		.fpu fpv4-sp-d16
 947              	plotEllipseRect:
 948              	.LVL95:
 949              	.LFB7:
 119:EE_API_LIB/src/graphics.c **** 
 120:EE_API_LIB/src/graphics.c **** void plotEllipseRect(uint32_t x0, uint32_t y0, uint32_t x1, uint32_t y1, uint8_t color)
 121:EE_API_LIB/src/graphics.c **** {
 950              		.loc 1 121 1 is_stmt 1 view -0
 951              		.cfi_startproc
 952              		@ args = 4, pretend = 0, frame = 16
 953              		@ frame_needed = 0, uses_anonymous_args = 0
 954              		.loc 1 121 1 is_stmt 0 view .LVU243
 955 0000 2DE9F04F 		push	{r4, r5, r6, r7, r8, r9, r10, fp, lr}
 956              	.LCFI11:
 957              		.cfi_def_cfa_offset 36
 958              		.cfi_offset 4, -36
 959              		.cfi_offset 5, -32
 960              		.cfi_offset 6, -28
 961              		.cfi_offset 7, -24
 962              		.cfi_offset 8, -20
 963              		.cfi_offset 9, -16
 964              		.cfi_offset 10, -12
 965              		.cfi_offset 11, -8
 966              		.cfi_offset 14, -4
 967 0004 85B0     		sub	sp, sp, #20
 968              	.LCFI12:
 969              		.cfi_def_cfa_offset 56
 970 0006 8046     		mov	r8, r0
 971 0008 1746     		mov	r7, r2
 972 000a 9DF83860 		ldrb	r6, [sp, #56]	@ zero_extendqisi2
 122:EE_API_LIB/src/graphics.c ****     uint32_t a = abs(x1 - x0), b = abs(y1 - y0), b1 = b & 1;     /* values of diameter */
 973              		.loc 1 122 5 is_stmt 1 view .LVU244
 974              		.loc 1 122 14 is_stmt 0 view .LVU245
 975 000e 121A     		subs	r2, r2, r0
 976              	.LVL96:
 977              		.loc 1 122 32 view .LVU246
 978 0010 581A     		subs	r0, r3, r1
 979              	.LVL97:
ARM GAS  /tmp/ccNlbooB.s 			page 22


 980              		.loc 1 122 32 view .LVU247
 981 0012 0190     		str	r0, [sp, #4]
 982              	.LVL98:
 983              		.loc 1 122 50 view .LVU248
 984 0014 00F00105 		and	r5, r0, #1
 985              	.LVL99:
 123:EE_API_LIB/src/graphics.c ****     int32_t dx = 4 * (1 - a) * b * b, dy = 4 * (b1 + 1) * a * a; /* error increment */
 986              		.loc 1 123 5 is_stmt 1 view .LVU249
 987              		.loc 1 123 25 is_stmt 0 view .LVU250
 988 0018 A8EB0709 		sub	r9, r8, r7
 989              		.loc 1 123 30 view .LVU251
 990 001c 09FB0009 		mla	r9, r9, r0, r0
 991              		.loc 1 123 34 view .LVU252
 992 0020 00FB09F9 		mul	r9, r0, r9
 993 0024 4FEA890B 		lsl	fp, r9, #2
 994              	.LVL100:
 995              		.loc 1 123 57 view .LVU253
 996 0028 05FB022A 		mla	r10, r5, r2, r2
 997              		.loc 1 123 61 view .LVU254
 998 002c 02FB0AFA 		mul	r10, r2, r10
 999 0030 4FEA8A0A 		lsl	r10, r10, #2
 1000              	.LVL101:
 124:EE_API_LIB/src/graphics.c ****     int32_t err = dx + dy + b1 * a * a, e2;                      /* error of 1.step */
 1001              		.loc 1 124 5 is_stmt 1 view .LVU255
 1002              		.loc 1 124 22 is_stmt 0 view .LVU256
 1003 0034 0AEB8909 		add	r9, r10, r9, lsl #2
 1004              		.loc 1 124 32 view .LVU257
 1005 0038 05FB02F0 		mul	r0, r5, r2
 1006              	.LVL102:
 1007              		.loc 1 124 27 view .LVU258
 1008 003c 02FB0099 		mla	r9, r2, r0, r9
 1009              	.LVL103:
 125:EE_API_LIB/src/graphics.c **** 
 126:EE_API_LIB/src/graphics.c ****     if (x0 > x1)
 1010              		.loc 1 126 5 is_stmt 1 view .LVU259
 1011              		.loc 1 126 8 is_stmt 0 view .LVU260
 1012 0040 4745     		cmp	r7, r8
 1013 0042 01D2     		bcs	.L83
 127:EE_API_LIB/src/graphics.c ****     {
 128:EE_API_LIB/src/graphics.c ****         x0 = x1;
 1014              		.loc 1 128 9 is_stmt 1 view .LVU261
 1015              	.LVL104:
 129:EE_API_LIB/src/graphics.c ****         x1 += a;
 1016              		.loc 1 129 9 view .LVU262
 128:EE_API_LIB/src/graphics.c ****         x1 += a;
 1017              		.loc 1 128 12 is_stmt 0 view .LVU263
 1018 0044 B846     		mov	r8, r7
 1019              		.loc 1 129 12 view .LVU264
 1020 0046 1744     		add	r7, r7, r2
 1021              	.LVL105:
 1022              	.L83:
 130:EE_API_LIB/src/graphics.c ****     } /* if called with swapped points */
 131:EE_API_LIB/src/graphics.c ****     if (y0 > y1)
 1023              		.loc 1 131 5 is_stmt 1 view .LVU265
 1024              		.loc 1 131 8 is_stmt 0 view .LVU266
 1025 0048 8B42     		cmp	r3, r1
 1026 004a 00D3     		bcc	.L84
ARM GAS  /tmp/ccNlbooB.s 			page 23


 1027              		.loc 1 131 8 view .LVU267
 1028 004c 0B46     		mov	r3, r1
 1029              	.LVL106:
 1030              	.L84:
 132:EE_API_LIB/src/graphics.c ****         y0 = y1; /* .. exchange them */
 133:EE_API_LIB/src/graphics.c ****     y0 += (b + 1) / 2;
 1031              		.loc 1 133 5 is_stmt 1 view .LVU268
 1032              		.loc 1 133 14 is_stmt 0 view .LVU269
 1033 004e 0199     		ldr	r1, [sp, #4]
 1034 0050 4C1C     		adds	r4, r1, #1
 1035              		.loc 1 133 8 view .LVU270
 1036 0052 03EB5404 		add	r4, r3, r4, lsr #1
 1037              	.LVL107:
 134:EE_API_LIB/src/graphics.c ****     y1 = y0 - b1; /* starting pixel */
 1038              		.loc 1 134 5 is_stmt 1 view .LVU271
 1039              		.loc 1 134 8 is_stmt 0 view .LVU272
 1040 0056 651B     		subs	r5, r4, r5
 1041              	.LVL108:
 135:EE_API_LIB/src/graphics.c ****     a *= 8 * a;
 1042              		.loc 1 135 5 is_stmt 1 view .LVU273
 1043              		.loc 1 135 7 is_stmt 0 view .LVU274
 1044 0058 02FB02F2 		mul	r2, r2, r2
 1045              	.LVL109:
 1046              		.loc 1 135 7 view .LVU275
 1047 005c D300     		lsls	r3, r2, #3
 1048 005e 0393     		str	r3, [sp, #12]
 1049              	.LVL110:
 136:EE_API_LIB/src/graphics.c ****     b1 = 8 * b * b;
 1050              		.loc 1 136 5 is_stmt 1 view .LVU276
 1051              		.loc 1 136 16 is_stmt 0 view .LVU277
 1052 0060 01FB01F3 		mul	r3, r1, r1
 1053              	.LVL111:
 1054              		.loc 1 136 8 view .LVU278
 1055 0064 DB00     		lsls	r3, r3, #3
 1056 0066 0293     		str	r3, [sp, #8]
 1057              	.LVL112:
 1058              		.loc 1 136 8 view .LVU279
 1059 0068 07E0     		b	.L92
 1060              	.LVL113:
 1061              	.L90:
 137:EE_API_LIB/src/graphics.c **** 
 138:EE_API_LIB/src/graphics.c ****     do
 139:EE_API_LIB/src/graphics.c ****     {
 140:EE_API_LIB/src/graphics.c ****         API_Set_pixel(x1, y0, color); /*   I. Quadrant */
 141:EE_API_LIB/src/graphics.c ****         API_Set_pixel(x0, y0, color); /*  II. Quadrant */
 142:EE_API_LIB/src/graphics.c ****         API_Set_pixel(x0, y1, color); /* III. Quadrant */
 143:EE_API_LIB/src/graphics.c ****         API_Set_pixel(x1, y1, color); /*  IV. Quadrant */
 144:EE_API_LIB/src/graphics.c ****         e2 = 2 * err;
 145:EE_API_LIB/src/graphics.c ****         if (e2 <= dy)
 146:EE_API_LIB/src/graphics.c ****         {
 147:EE_API_LIB/src/graphics.c ****             y0++;
 148:EE_API_LIB/src/graphics.c ****             y1--;
 149:EE_API_LIB/src/graphics.c ****             err += dy += a;
 150:EE_API_LIB/src/graphics.c ****         } /* y step */
 151:EE_API_LIB/src/graphics.c ****         if (e2 >= dx || 2 * err > dy)
 152:EE_API_LIB/src/graphics.c ****         {
 153:EE_API_LIB/src/graphics.c ****             x0++;
ARM GAS  /tmp/ccNlbooB.s 			page 24


 1062              		.loc 1 153 13 is_stmt 1 view .LVU280
 1063              		.loc 1 153 15 is_stmt 0 view .LVU281
 1064 006a 08F10108 		add	r8, r8, #1
 1065              	.LVL114:
 154:EE_API_LIB/src/graphics.c ****             x1--;
 1066              		.loc 1 154 13 is_stmt 1 view .LVU282
 1067              		.loc 1 154 15 is_stmt 0 view .LVU283
 1068 006e 013F     		subs	r7, r7, #1
 1069              	.LVL115:
 155:EE_API_LIB/src/graphics.c ****             err += dx += b1;
 1070              		.loc 1 155 13 is_stmt 1 view .LVU284
 1071              		.loc 1 155 23 is_stmt 0 view .LVU285
 1072 0070 029B     		ldr	r3, [sp, #8]
 1073              	.LVL116:
 1074              		.loc 1 155 23 view .LVU286
 1075 0072 9B44     		add	fp, fp, r3
 1076              	.LVL117:
 1077              		.loc 1 155 17 view .LVU287
 1078 0074 D944     		add	r9, r9, fp
 1079              	.LVL118:
 1080              	.L91:
 156:EE_API_LIB/src/graphics.c ****         } /* x step */
 157:EE_API_LIB/src/graphics.c ****     } while (x0 <= x1);
 1081              		.loc 1 157 13 is_stmt 1 view .LVU288
 1082              		.loc 1 157 5 is_stmt 0 view .LVU289
 1083 0076 B845     		cmp	r8, r7
 1084 0078 2DD8     		bhi	.L93
 1085              	.L92:
 138:EE_API_LIB/src/graphics.c ****     {
 1086              		.loc 1 138 5 is_stmt 1 view .LVU290
 140:EE_API_LIB/src/graphics.c ****         API_Set_pixel(x0, y0, color); /*  II. Quadrant */
 1087              		.loc 1 140 9 view .LVU291
 1088              	.LVL119:
 1089              	.LBB64:
 1090              	.LBI64:
  26:EE_API_LIB/src/graphics.c **** {
 1091              		.loc 1 26 13 view .LVU292
 1092              	.LBB65:
  28:EE_API_LIB/src/graphics.c ****         return;
 1093              		.loc 1 28 5 view .LVU293
  28:EE_API_LIB/src/graphics.c ****         return;
 1094              		.loc 1 28 29 is_stmt 0 view .LVU294
 1095 007a 2D4B     		ldr	r3, .L101
 1096 007c 1B68     		ldr	r3, [r3]
  28:EE_API_LIB/src/graphics.c ****         return;
 1097              		.loc 1 28 8 view .LVU295
 1098 007e 1BB1     		cbz	r3, .L85
  31:EE_API_LIB/src/graphics.c **** }
 1099              		.loc 1 31 5 is_stmt 1 view .LVU296
 1100 0080 3246     		mov	r2, r6
 1101 0082 2146     		mov	r1, r4
 1102 0084 3846     		mov	r0, r7
 1103 0086 9847     		blx	r3
 1104              	.LVL120:
 1105              	.L85:
  31:EE_API_LIB/src/graphics.c **** }
 1106              		.loc 1 31 5 is_stmt 0 view .LVU297
ARM GAS  /tmp/ccNlbooB.s 			page 25


 1107              	.LBE65:
 1108              	.LBE64:
 141:EE_API_LIB/src/graphics.c ****         API_Set_pixel(x0, y1, color); /* III. Quadrant */
 1109              		.loc 1 141 9 is_stmt 1 view .LVU298
 1110              	.LBB66:
 1111              	.LBI66:
  26:EE_API_LIB/src/graphics.c **** {
 1112              		.loc 1 26 13 view .LVU299
 1113              	.LBB67:
  28:EE_API_LIB/src/graphics.c ****         return;
 1114              		.loc 1 28 5 view .LVU300
  28:EE_API_LIB/src/graphics.c ****         return;
 1115              		.loc 1 28 29 is_stmt 0 view .LVU301
 1116 0088 294B     		ldr	r3, .L101
 1117 008a 1B68     		ldr	r3, [r3]
  28:EE_API_LIB/src/graphics.c ****         return;
 1118              		.loc 1 28 8 view .LVU302
 1119 008c 1BB1     		cbz	r3, .L86
  31:EE_API_LIB/src/graphics.c **** }
 1120              		.loc 1 31 5 is_stmt 1 view .LVU303
 1121 008e 3246     		mov	r2, r6
 1122 0090 2146     		mov	r1, r4
 1123 0092 4046     		mov	r0, r8
 1124 0094 9847     		blx	r3
 1125              	.LVL121:
 1126              	.L86:
  31:EE_API_LIB/src/graphics.c **** }
 1127              		.loc 1 31 5 is_stmt 0 view .LVU304
 1128              	.LBE67:
 1129              	.LBE66:
 142:EE_API_LIB/src/graphics.c ****         API_Set_pixel(x1, y1, color); /*  IV. Quadrant */
 1130              		.loc 1 142 9 is_stmt 1 view .LVU305
 1131              	.LBB68:
 1132              	.LBI68:
  26:EE_API_LIB/src/graphics.c **** {
 1133              		.loc 1 26 13 view .LVU306
 1134              	.LBB69:
  28:EE_API_LIB/src/graphics.c ****         return;
 1135              		.loc 1 28 5 view .LVU307
  28:EE_API_LIB/src/graphics.c ****         return;
 1136              		.loc 1 28 29 is_stmt 0 view .LVU308
 1137 0096 264B     		ldr	r3, .L101
 1138 0098 1B68     		ldr	r3, [r3]
  28:EE_API_LIB/src/graphics.c ****         return;
 1139              		.loc 1 28 8 view .LVU309
 1140 009a 1BB1     		cbz	r3, .L87
  31:EE_API_LIB/src/graphics.c **** }
 1141              		.loc 1 31 5 is_stmt 1 view .LVU310
 1142 009c 3246     		mov	r2, r6
 1143 009e 2946     		mov	r1, r5
 1144 00a0 4046     		mov	r0, r8
 1145 00a2 9847     		blx	r3
 1146              	.LVL122:
 1147              	.L87:
  31:EE_API_LIB/src/graphics.c **** }
 1148              		.loc 1 31 5 is_stmt 0 view .LVU311
 1149              	.LBE69:
ARM GAS  /tmp/ccNlbooB.s 			page 26


 1150              	.LBE68:
 143:EE_API_LIB/src/graphics.c ****         e2 = 2 * err;
 1151              		.loc 1 143 9 is_stmt 1 view .LVU312
 1152              	.LBB70:
 1153              	.LBI70:
  26:EE_API_LIB/src/graphics.c **** {
 1154              		.loc 1 26 13 view .LVU313
 1155              	.LBB71:
  28:EE_API_LIB/src/graphics.c ****         return;
 1156              		.loc 1 28 5 view .LVU314
  28:EE_API_LIB/src/graphics.c ****         return;
 1157              		.loc 1 28 29 is_stmt 0 view .LVU315
 1158 00a4 224B     		ldr	r3, .L101
 1159 00a6 1B68     		ldr	r3, [r3]
  28:EE_API_LIB/src/graphics.c ****         return;
 1160              		.loc 1 28 8 view .LVU316
 1161 00a8 1BB1     		cbz	r3, .L88
  31:EE_API_LIB/src/graphics.c **** }
 1162              		.loc 1 31 5 is_stmt 1 view .LVU317
 1163 00aa 3246     		mov	r2, r6
 1164 00ac 2946     		mov	r1, r5
 1165 00ae 3846     		mov	r0, r7
 1166 00b0 9847     		blx	r3
 1167              	.LVL123:
 1168              	.L88:
  31:EE_API_LIB/src/graphics.c **** }
 1169              		.loc 1 31 5 is_stmt 0 view .LVU318
 1170              	.LBE71:
 1171              	.LBE70:
 144:EE_API_LIB/src/graphics.c ****         if (e2 <= dy)
 1172              		.loc 1 144 9 is_stmt 1 view .LVU319
 144:EE_API_LIB/src/graphics.c ****         if (e2 <= dy)
 1173              		.loc 1 144 12 is_stmt 0 view .LVU320
 1174 00b2 4FEA4903 		lsl	r3, r9, #1
 1175              	.LVL124:
 145:EE_API_LIB/src/graphics.c ****         {
 1176              		.loc 1 145 9 is_stmt 1 view .LVU321
 145:EE_API_LIB/src/graphics.c ****         {
 1177              		.loc 1 145 12 is_stmt 0 view .LVU322
 1178 00b6 BAEB490F 		cmp	r10, r9, lsl #1
 1179 00ba 04DB     		blt	.L89
 147:EE_API_LIB/src/graphics.c ****             y1--;
 1180              		.loc 1 147 13 is_stmt 1 view .LVU323
 147:EE_API_LIB/src/graphics.c ****             y1--;
 1181              		.loc 1 147 15 is_stmt 0 view .LVU324
 1182 00bc 0134     		adds	r4, r4, #1
 1183              	.LVL125:
 148:EE_API_LIB/src/graphics.c ****             err += dy += a;
 1184              		.loc 1 148 13 is_stmt 1 view .LVU325
 148:EE_API_LIB/src/graphics.c ****             err += dy += a;
 1185              		.loc 1 148 15 is_stmt 0 view .LVU326
 1186 00be 013D     		subs	r5, r5, #1
 1187              	.LVL126:
 149:EE_API_LIB/src/graphics.c ****         } /* y step */
 1188              		.loc 1 149 13 is_stmt 1 view .LVU327
 149:EE_API_LIB/src/graphics.c ****         } /* y step */
 1189              		.loc 1 149 23 is_stmt 0 view .LVU328
ARM GAS  /tmp/ccNlbooB.s 			page 27


 1190 00c0 039A     		ldr	r2, [sp, #12]
 1191 00c2 9244     		add	r10, r10, r2
 1192              	.LVL127:
 149:EE_API_LIB/src/graphics.c ****         } /* y step */
 1193              		.loc 1 149 17 view .LVU329
 1194 00c4 D144     		add	r9, r9, r10
 1195              	.LVL128:
 1196              	.L89:
 151:EE_API_LIB/src/graphics.c ****         {
 1197              		.loc 1 151 9 is_stmt 1 view .LVU330
 151:EE_API_LIB/src/graphics.c ****         {
 1198              		.loc 1 151 12 is_stmt 0 view .LVU331
 1199 00c6 9B45     		cmp	fp, r3
 1200 00c8 CFDD     		ble	.L90
 151:EE_API_LIB/src/graphics.c ****         {
 1201              		.loc 1 151 22 discriminator 1 view .LVU332
 1202 00ca BAEB490F 		cmp	r10, r9, lsl #1
 1203 00ce D2DA     		bge	.L91
 1204 00d0 CBE7     		b	.L90
 1205              	.LVL129:
 1206              	.L97:
 131:EE_API_LIB/src/graphics.c ****         y0 = y1; /* .. exchange them */
 1207              		.loc 1 131 8 view .LVU333
 1208 00d2 2546     		mov	r5, r4
 1209              	.LVL130:
 131:EE_API_LIB/src/graphics.c ****         y0 = y1; /* .. exchange them */
 1210              		.loc 1 131 8 view .LVU334
 1211 00d4 5C46     		mov	r4, fp
 1212              	.LVL131:
 1213              	.L93:
 158:EE_API_LIB/src/graphics.c **** 
 159:EE_API_LIB/src/graphics.c ****     while (y0 - y1 < b)
 1214              		.loc 1 159 11 is_stmt 1 view .LVU335
 1215              		.loc 1 159 15 is_stmt 0 view .LVU336
 1216 00d6 631B     		subs	r3, r4, r5
 1217              		.loc 1 159 11 view .LVU337
 1218 00d8 019A     		ldr	r2, [sp, #4]
 1219 00da 9342     		cmp	r3, r2
 1220 00dc 24D2     		bcs	.L100
 160:EE_API_LIB/src/graphics.c ****     {                                     /* too early stop of flat ellipses a=1 */
 161:EE_API_LIB/src/graphics.c ****         API_Set_pixel(x0 - 1, y0, color); /* -> finish tip of ellipse */
 1221              		.loc 1 161 9 is_stmt 1 view .LVU338
 1222              		.loc 1 161 26 is_stmt 0 view .LVU339
 1223 00de 08F1FF3A 		add	r10, r8, #-1
 1224              	.LVL132:
 1225              	.LBB72:
 1226              	.LBI72:
  26:EE_API_LIB/src/graphics.c **** {
 1227              		.loc 1 26 13 is_stmt 1 view .LVU340
 1228              	.LBB73:
  28:EE_API_LIB/src/graphics.c ****         return;
 1229              		.loc 1 28 5 view .LVU341
  28:EE_API_LIB/src/graphics.c ****         return;
 1230              		.loc 1 28 29 is_stmt 0 view .LVU342
 1231 00e2 134B     		ldr	r3, .L101
 1232 00e4 1B68     		ldr	r3, [r3]
  28:EE_API_LIB/src/graphics.c ****         return;
ARM GAS  /tmp/ccNlbooB.s 			page 28


 1233              		.loc 1 28 8 view .LVU343
 1234 00e6 1BB1     		cbz	r3, .L94
  31:EE_API_LIB/src/graphics.c **** }
 1235              		.loc 1 31 5 is_stmt 1 view .LVU344
 1236 00e8 3246     		mov	r2, r6
 1237 00ea 2146     		mov	r1, r4
 1238 00ec 5046     		mov	r0, r10
 1239 00ee 9847     		blx	r3
 1240              	.LVL133:
 1241              	.L94:
  31:EE_API_LIB/src/graphics.c **** }
 1242              		.loc 1 31 5 is_stmt 0 view .LVU345
 1243              	.LBE73:
 1244              	.LBE72:
 162:EE_API_LIB/src/graphics.c ****         API_Set_pixel(x1 + 1, y0++, color);
 1245              		.loc 1 162 9 is_stmt 1 view .LVU346
 1246              		.loc 1 162 26 is_stmt 0 view .LVU347
 1247 00f0 07F10109 		add	r9, r7, #1
 1248              		.loc 1 162 33 view .LVU348
 1249 00f4 04F1010B 		add	fp, r4, #1
 1250              	.LVL134:
 1251              	.LBB74:
 1252              	.LBI74:
  26:EE_API_LIB/src/graphics.c **** {
 1253              		.loc 1 26 13 is_stmt 1 view .LVU349
 1254              	.LBB75:
  28:EE_API_LIB/src/graphics.c ****         return;
 1255              		.loc 1 28 5 view .LVU350
  28:EE_API_LIB/src/graphics.c ****         return;
 1256              		.loc 1 28 29 is_stmt 0 view .LVU351
 1257 00f8 0D4B     		ldr	r3, .L101
 1258 00fa 1B68     		ldr	r3, [r3]
  28:EE_API_LIB/src/graphics.c ****         return;
 1259              		.loc 1 28 8 view .LVU352
 1260 00fc 1BB1     		cbz	r3, .L95
  31:EE_API_LIB/src/graphics.c **** }
 1261              		.loc 1 31 5 is_stmt 1 view .LVU353
 1262 00fe 3246     		mov	r2, r6
 1263 0100 2146     		mov	r1, r4
 1264 0102 4846     		mov	r0, r9
 1265 0104 9847     		blx	r3
 1266              	.LVL135:
 1267              	.L95:
  31:EE_API_LIB/src/graphics.c **** }
 1268              		.loc 1 31 5 is_stmt 0 view .LVU354
 1269              	.LBE75:
 1270              	.LBE74:
 163:EE_API_LIB/src/graphics.c ****         API_Set_pixel(x0 - 1, y1, color);
 1271              		.loc 1 163 9 is_stmt 1 view .LVU355
 1272              	.LBB76:
 1273              	.LBI76:
  26:EE_API_LIB/src/graphics.c **** {
 1274              		.loc 1 26 13 view .LVU356
 1275              	.LBB77:
  28:EE_API_LIB/src/graphics.c ****         return;
 1276              		.loc 1 28 5 view .LVU357
  28:EE_API_LIB/src/graphics.c ****         return;
ARM GAS  /tmp/ccNlbooB.s 			page 29


 1277              		.loc 1 28 29 is_stmt 0 view .LVU358
 1278 0106 0A4B     		ldr	r3, .L101
 1279 0108 1B68     		ldr	r3, [r3]
  28:EE_API_LIB/src/graphics.c ****         return;
 1280              		.loc 1 28 8 view .LVU359
 1281 010a 1BB1     		cbz	r3, .L96
  31:EE_API_LIB/src/graphics.c **** }
 1282              		.loc 1 31 5 is_stmt 1 view .LVU360
 1283 010c 3246     		mov	r2, r6
 1284 010e 2946     		mov	r1, r5
 1285 0110 5046     		mov	r0, r10
 1286 0112 9847     		blx	r3
 1287              	.LVL136:
 1288              	.L96:
  31:EE_API_LIB/src/graphics.c **** }
 1289              		.loc 1 31 5 is_stmt 0 view .LVU361
 1290              	.LBE77:
 1291              	.LBE76:
 164:EE_API_LIB/src/graphics.c ****         API_Set_pixel(x1 + 1, y1--, color);
 1292              		.loc 1 164 9 is_stmt 1 view .LVU362
 1293              		.loc 1 164 33 is_stmt 0 view .LVU363
 1294 0114 6C1E     		subs	r4, r5, #1
 1295              	.LVL137:
 1296              	.LBB78:
 1297              	.LBI78:
  26:EE_API_LIB/src/graphics.c **** {
 1298              		.loc 1 26 13 is_stmt 1 view .LVU364
 1299              	.LBB79:
  28:EE_API_LIB/src/graphics.c ****         return;
 1300              		.loc 1 28 5 view .LVU365
  28:EE_API_LIB/src/graphics.c ****         return;
 1301              		.loc 1 28 29 is_stmt 0 view .LVU366
 1302 0116 064B     		ldr	r3, .L101
 1303 0118 1B68     		ldr	r3, [r3]
  28:EE_API_LIB/src/graphics.c ****         return;
 1304              		.loc 1 28 8 view .LVU367
 1305 011a 002B     		cmp	r3, #0
 1306 011c D9D0     		beq	.L97
  31:EE_API_LIB/src/graphics.c **** }
 1307              		.loc 1 31 5 is_stmt 1 view .LVU368
 1308 011e 3246     		mov	r2, r6
 1309 0120 2946     		mov	r1, r5
 1310 0122 4846     		mov	r0, r9
 1311 0124 9847     		blx	r3
 1312              	.LVL138:
 1313 0126 D4E7     		b	.L97
 1314              	.LVL139:
 1315              	.L100:
  31:EE_API_LIB/src/graphics.c **** }
 1316              		.loc 1 31 5 is_stmt 0 view .LVU369
 1317              	.LBE79:
 1318              	.LBE78:
 165:EE_API_LIB/src/graphics.c ****     }
 166:EE_API_LIB/src/graphics.c **** }
 1319              		.loc 1 166 1 view .LVU370
 1320 0128 05B0     		add	sp, sp, #20
 1321              	.LCFI13:
ARM GAS  /tmp/ccNlbooB.s 			page 30


 1322              		.cfi_def_cfa_offset 36
 1323              		@ sp needed
 1324 012a BDE8F08F 		pop	{r4, r5, r6, r7, r8, r9, r10, fp, pc}
 1325              	.LVL140:
 1326              	.L102:
 1327              		.loc 1 166 1 view .LVU371
 1328 012e 00BF     		.align	2
 1329              	.L101:
 1330 0130 00000000 		.word	_set_pixel_callback
 1331              		.cfi_endproc
 1332              	.LFE7:
 1334              		.section	.text.API_Draw_polygon,"ax",%progbits
 1335              		.align	1
 1336              		.global	API_Draw_polygon
 1337              		.syntax unified
 1338              		.thumb
 1339              		.thumb_func
 1340              		.fpu fpv4-sp-d16
 1342              	API_Draw_polygon:
 1343              	.LVL141:
 1344              	.LFB8:
 167:EE_API_LIB/src/graphics.c **** 
 168:EE_API_LIB/src/graphics.c **** void API_Draw_polygon(const int32_t *list_X, const int32_t *list_Y, uint32_t length, uint8_t color)
 169:EE_API_LIB/src/graphics.c **** {
 1345              		.loc 1 169 1 is_stmt 1 view -0
 1346              		.cfi_startproc
 1347              		@ args = 0, pretend = 0, frame = 0
 1348              		@ frame_needed = 0, uses_anonymous_args = 0
 1349              		.loc 1 169 1 is_stmt 0 view .LVU373
 1350 0000 2DE9F043 		push	{r4, r5, r6, r7, r8, r9, lr}
 1351              	.LCFI14:
 1352              		.cfi_def_cfa_offset 28
 1353              		.cfi_offset 4, -28
 1354              		.cfi_offset 5, -24
 1355              		.cfi_offset 6, -20
 1356              		.cfi_offset 7, -16
 1357              		.cfi_offset 8, -12
 1358              		.cfi_offset 9, -8
 1359              		.cfi_offset 14, -4
 1360 0004 83B0     		sub	sp, sp, #12
 1361              	.LCFI15:
 1362              		.cfi_def_cfa_offset 40
 1363 0006 0646     		mov	r6, r0
 1364 0008 0F46     		mov	r7, r1
 1365 000a 9046     		mov	r8, r2
 1366 000c 9946     		mov	r9, r3
 170:EE_API_LIB/src/graphics.c ****     API_Draw_line(list_X[0], list_Y[0], list_X[length - 1], list_Y[length - 1], color);
 1367              		.loc 1 170 5 is_stmt 1 view .LVU374
 1368              		.loc 1 170 47 is_stmt 0 view .LVU375
 1369 000e 02F18042 		add	r2, r2, #1073741824
 1370              	.LVL142:
 1371              		.loc 1 170 47 view .LVU376
 1372 0012 013A     		subs	r2, r2, #1
 1373              		.loc 1 170 5 view .LVU377
 1374 0014 0093     		str	r3, [sp]
 1375 0016 51F82230 		ldr	r3, [r1, r2, lsl #2]
 1376              	.LVL143:
ARM GAS  /tmp/ccNlbooB.s 			page 31


 1377              		.loc 1 170 5 view .LVU378
 1378 001a 50F82220 		ldr	r2, [r0, r2, lsl #2]
 1379 001e 0968     		ldr	r1, [r1]
 1380              	.LVL144:
 1381              		.loc 1 170 5 view .LVU379
 1382 0020 0068     		ldr	r0, [r0]
 1383              	.LVL145:
 1384              		.loc 1 170 5 view .LVU380
 1385 0022 FFF7FEFF 		bl	API_Draw_line
 1386              	.LVL146:
 171:EE_API_LIB/src/graphics.c **** 
 172:EE_API_LIB/src/graphics.c ****     for (uint32_t i = 0; i < length - 1; i++)
 1387              		.loc 1 172 5 is_stmt 1 view .LVU381
 1388              	.LBB80:
 1389              		.loc 1 172 10 view .LVU382
 1390              		.loc 1 172 19 is_stmt 0 view .LVU383
 1391 0026 0024     		movs	r4, #0
 1392              	.LVL147:
 1393              	.L104:
 1394              		.loc 1 172 26 is_stmt 1 discriminator 1 view .LVU384
 1395              		.loc 1 172 37 is_stmt 0 discriminator 1 view .LVU385
 1396 0028 08F1FF31 		add	r1, r8, #-1
 1397              		.loc 1 172 5 discriminator 1 view .LVU386
 1398 002c A142     		cmp	r1, r4
 1399 002e 0CD9     		bls	.L107
 173:EE_API_LIB/src/graphics.c ****         API_Draw_line(list_X[i], list_Y[i], list_X[i + 1], list_Y[i + 1], color);
 1400              		.loc 1 173 9 is_stmt 1 discriminator 3 view .LVU387
 1401              		.loc 1 173 29 is_stmt 0 discriminator 3 view .LVU388
 1402 0030 A500     		lsls	r5, r4, #2
 1403              		.loc 1 173 51 discriminator 3 view .LVU389
 1404 0032 0134     		adds	r4, r4, #1
 1405              	.LVL148:
 1406              		.loc 1 173 9 discriminator 3 view .LVU390
 1407 0034 CDF80090 		str	r9, [sp]
 1408 0038 57F82430 		ldr	r3, [r7, r4, lsl #2]
 1409 003c 56F82420 		ldr	r2, [r6, r4, lsl #2]
 1410 0040 7959     		ldr	r1, [r7, r5]
 1411 0042 7059     		ldr	r0, [r6, r5]
 1412 0044 FFF7FEFF 		bl	API_Draw_line
 1413              	.LVL149:
 172:EE_API_LIB/src/graphics.c ****         API_Draw_line(list_X[i], list_Y[i], list_X[i + 1], list_Y[i + 1], color);
 1414              		.loc 1 172 42 is_stmt 1 discriminator 3 view .LVU391
 172:EE_API_LIB/src/graphics.c ****         API_Draw_line(list_X[i], list_Y[i], list_X[i + 1], list_Y[i + 1], color);
 1415              		.loc 1 172 42 is_stmt 0 discriminator 3 view .LVU392
 1416 0048 EEE7     		b	.L104
 1417              	.L107:
 172:EE_API_LIB/src/graphics.c ****         API_Draw_line(list_X[i], list_Y[i], list_X[i + 1], list_Y[i + 1], color);
 1418              		.loc 1 172 42 discriminator 3 view .LVU393
 1419              	.LBE80:
 174:EE_API_LIB/src/graphics.c **** }...
 1420              		.loc 1 174 1 view .LVU394
 1421 004a 03B0     		add	sp, sp, #12
 1422              	.LCFI16:
 1423              		.cfi_def_cfa_offset 28
 1424              		@ sp needed
 1425 004c BDE8F083 		pop	{r4, r5, r6, r7, r8, r9, pc}
 1426              		.loc 1 174 1 view .LVU395
ARM GAS  /tmp/ccNlbooB.s 			page 32


 1427              		.cfi_endproc
 1428              	.LFE8:
 1430              		.text
 1431              	.Letext0:
 1432              		.file 2 "/usr/lib/gcc/arm-none-eabi/9.2.1/include/stdint.h"
 1433              		.file 3 "EE_API_LIB/graphics.h"
ARM GAS  /tmp/ccNlbooB.s 			page 33

