ARM GAS  /tmp/ccWw4OVT.s 			page 1


   1              		.cpu cortex-m4
   2              		.eabi_attribute 27, 1
   3              		.eabi_attribute 28, 1
   4              		.eabi_attribute 20, 1
   5              		.eabi_attribute 21, 1
   6              		.eabi_attribute 23, 3
   7              		.eabi_attribute 24, 1
   8              		.eabi_attribute 25, 1
   9              		.eabi_attribute 26, 1
  10              		.eabi_attribute 30, 1
  11              		.eabi_attribute 34, 1
  12              		.eabi_attribute 18, 4
  13              		.file	"stm32f4xx_hal_exti.c"
  14              		.text
  15              	.Ltext0:
  16              		.cfi_sections	.debug_frame
  17              		.section	.rodata.HAL_EXTI_SetConfigLine.str1.4,"aMS",%progbits,1
  18              		.align	2
  19              	.LC0:
  20 0000 44726976 		.ascii	"Drivers/STM32F4xx_HAL_Driver/Src/stm32f4xx_hal_exti"
  20      6572732F 
  20      53544D33 
  20      32463478 
  20      785F4841 
  21 0033 2E6300   		.ascii	".c\000"
  22              		.section	.text.HAL_EXTI_SetConfigLine,"ax",%progbits
  23              		.align	1
  24              		.global	HAL_EXTI_SetConfigLine
  25              		.arch armv7e-m
  26              		.syntax unified
  27              		.thumb
  28              		.thumb_func
  29              		.fpu fpv4-sp-d16
  31              	HAL_EXTI_SetConfigLine:
  32              	.LVL0:
  33              	.LFB130:
  34              		.file 1 "Drivers/STM32F4xx_HAL_Driver/Src/stm32f4xx_hal_exti.c"
   1:Drivers/STM32F4xx_HAL_Driver/Src/stm32f4xx_hal_exti.c **** /**
   2:Drivers/STM32F4xx_HAL_Driver/Src/stm32f4xx_hal_exti.c ****   ******************************************************************************
   3:Drivers/STM32F4xx_HAL_Driver/Src/stm32f4xx_hal_exti.c ****   * @file    stm32f4xx_hal_exti.c
   4:Drivers/STM32F4xx_HAL_Driver/Src/stm32f4xx_hal_exti.c ****   * @author  MCD Application Team
   5:Drivers/STM32F4xx_HAL_Driver/Src/stm32f4xx_hal_exti.c ****   * @brief   EXTI HAL module driver.
   6:Drivers/STM32F4xx_HAL_Driver/Src/stm32f4xx_hal_exti.c ****   *          This file provides firmware functions to manage the following
   7:Drivers/STM32F4xx_HAL_Driver/Src/stm32f4xx_hal_exti.c ****   *          functionalities of the Extended Interrupts and events controller (EXTI) peripheral:
   8:Drivers/STM32F4xx_HAL_Driver/Src/stm32f4xx_hal_exti.c ****   *           + Initialization and de-initialization functions
   9:Drivers/STM32F4xx_HAL_Driver/Src/stm32f4xx_hal_exti.c ****   *           + IO operation functions
  10:Drivers/STM32F4xx_HAL_Driver/Src/stm32f4xx_hal_exti.c ****   *
  11:Drivers/STM32F4xx_HAL_Driver/Src/stm32f4xx_hal_exti.c ****   @verbatim
  12:Drivers/STM32F4xx_HAL_Driver/Src/stm32f4xx_hal_exti.c ****   ==============================================================================
  13:Drivers/STM32F4xx_HAL_Driver/Src/stm32f4xx_hal_exti.c ****                     ##### EXTI Peripheral features #####
  14:Drivers/STM32F4xx_HAL_Driver/Src/stm32f4xx_hal_exti.c ****   ==============================================================================
  15:Drivers/STM32F4xx_HAL_Driver/Src/stm32f4xx_hal_exti.c ****   [..]
  16:Drivers/STM32F4xx_HAL_Driver/Src/stm32f4xx_hal_exti.c ****     (+) Each Exti line can be configured within this driver.
  17:Drivers/STM32F4xx_HAL_Driver/Src/stm32f4xx_hal_exti.c **** 
  18:Drivers/STM32F4xx_HAL_Driver/Src/stm32f4xx_hal_exti.c ****     (+) Exti line can be configured in 3 different modes
  19:Drivers/STM32F4xx_HAL_Driver/Src/stm32f4xx_hal_exti.c ****         (++) Interrupt
  20:Drivers/STM32F4xx_HAL_Driver/Src/stm32f4xx_hal_exti.c ****         (++) Event
ARM GAS  /tmp/ccWw4OVT.s 			page 2


  21:Drivers/STM32F4xx_HAL_Driver/Src/stm32f4xx_hal_exti.c ****         (++) Both of them
  22:Drivers/STM32F4xx_HAL_Driver/Src/stm32f4xx_hal_exti.c **** 
  23:Drivers/STM32F4xx_HAL_Driver/Src/stm32f4xx_hal_exti.c ****     (+) Configurable Exti lines can be configured with 3 different triggers
  24:Drivers/STM32F4xx_HAL_Driver/Src/stm32f4xx_hal_exti.c ****         (++) Rising
  25:Drivers/STM32F4xx_HAL_Driver/Src/stm32f4xx_hal_exti.c ****         (++) Falling
  26:Drivers/STM32F4xx_HAL_Driver/Src/stm32f4xx_hal_exti.c ****         (++) Both of them
  27:Drivers/STM32F4xx_HAL_Driver/Src/stm32f4xx_hal_exti.c **** 
  28:Drivers/STM32F4xx_HAL_Driver/Src/stm32f4xx_hal_exti.c ****     (+) When set in interrupt mode, configurable Exti lines have two different
  29:Drivers/STM32F4xx_HAL_Driver/Src/stm32f4xx_hal_exti.c ****         interrupts pending registers which allow to distinguish which transition
  30:Drivers/STM32F4xx_HAL_Driver/Src/stm32f4xx_hal_exti.c ****         occurs:
  31:Drivers/STM32F4xx_HAL_Driver/Src/stm32f4xx_hal_exti.c ****         (++) Rising edge pending interrupt
  32:Drivers/STM32F4xx_HAL_Driver/Src/stm32f4xx_hal_exti.c ****         (++) Falling
  33:Drivers/STM32F4xx_HAL_Driver/Src/stm32f4xx_hal_exti.c **** 
  34:Drivers/STM32F4xx_HAL_Driver/Src/stm32f4xx_hal_exti.c ****     (+) Exti lines 0 to 15 are linked to gpio pin number 0 to 15. Gpio port can
  35:Drivers/STM32F4xx_HAL_Driver/Src/stm32f4xx_hal_exti.c ****         be selected through multiplexer.
  36:Drivers/STM32F4xx_HAL_Driver/Src/stm32f4xx_hal_exti.c **** 
  37:Drivers/STM32F4xx_HAL_Driver/Src/stm32f4xx_hal_exti.c ****                      ##### How to use this driver #####
  38:Drivers/STM32F4xx_HAL_Driver/Src/stm32f4xx_hal_exti.c ****   ==============================================================================
  39:Drivers/STM32F4xx_HAL_Driver/Src/stm32f4xx_hal_exti.c ****   [..]
  40:Drivers/STM32F4xx_HAL_Driver/Src/stm32f4xx_hal_exti.c **** 
  41:Drivers/STM32F4xx_HAL_Driver/Src/stm32f4xx_hal_exti.c ****     (#) Configure the EXTI line using HAL_EXTI_SetConfigLine().
  42:Drivers/STM32F4xx_HAL_Driver/Src/stm32f4xx_hal_exti.c ****         (++) Choose the interrupt line number by setting "Line" member from
  43:Drivers/STM32F4xx_HAL_Driver/Src/stm32f4xx_hal_exti.c ****              EXTI_ConfigTypeDef structure.
  44:Drivers/STM32F4xx_HAL_Driver/Src/stm32f4xx_hal_exti.c ****         (++) Configure the interrupt and/or event mode using "Mode" member from
  45:Drivers/STM32F4xx_HAL_Driver/Src/stm32f4xx_hal_exti.c ****              EXTI_ConfigTypeDef structure.
  46:Drivers/STM32F4xx_HAL_Driver/Src/stm32f4xx_hal_exti.c ****         (++) For configurable lines, configure rising and/or falling trigger
  47:Drivers/STM32F4xx_HAL_Driver/Src/stm32f4xx_hal_exti.c ****              "Trigger" member from EXTI_ConfigTypeDef structure.
  48:Drivers/STM32F4xx_HAL_Driver/Src/stm32f4xx_hal_exti.c ****         (++) For Exti lines linked to gpio, choose gpio port using "GPIOSel"
  49:Drivers/STM32F4xx_HAL_Driver/Src/stm32f4xx_hal_exti.c ****              member from GPIO_InitTypeDef structure.
  50:Drivers/STM32F4xx_HAL_Driver/Src/stm32f4xx_hal_exti.c **** 
  51:Drivers/STM32F4xx_HAL_Driver/Src/stm32f4xx_hal_exti.c ****     (#) Get current Exti configuration of a dedicated line using
  52:Drivers/STM32F4xx_HAL_Driver/Src/stm32f4xx_hal_exti.c ****         HAL_EXTI_GetConfigLine().
  53:Drivers/STM32F4xx_HAL_Driver/Src/stm32f4xx_hal_exti.c ****         (++) Provide exiting handle as parameter.
  54:Drivers/STM32F4xx_HAL_Driver/Src/stm32f4xx_hal_exti.c ****         (++) Provide pointer on EXTI_ConfigTypeDef structure as second parameter.
  55:Drivers/STM32F4xx_HAL_Driver/Src/stm32f4xx_hal_exti.c **** 
  56:Drivers/STM32F4xx_HAL_Driver/Src/stm32f4xx_hal_exti.c ****     (#) Clear Exti configuration of a dedicated line using HAL_EXTI_GetConfigLine().
  57:Drivers/STM32F4xx_HAL_Driver/Src/stm32f4xx_hal_exti.c ****         (++) Provide exiting handle as parameter.
  58:Drivers/STM32F4xx_HAL_Driver/Src/stm32f4xx_hal_exti.c **** 
  59:Drivers/STM32F4xx_HAL_Driver/Src/stm32f4xx_hal_exti.c ****     (#) Register callback to treat Exti interrupts using HAL_EXTI_RegisterCallback().
  60:Drivers/STM32F4xx_HAL_Driver/Src/stm32f4xx_hal_exti.c ****         (++) Provide exiting handle as first parameter.
  61:Drivers/STM32F4xx_HAL_Driver/Src/stm32f4xx_hal_exti.c ****         (++) Provide which callback will be registered using one value from
  62:Drivers/STM32F4xx_HAL_Driver/Src/stm32f4xx_hal_exti.c ****              EXTI_CallbackIDTypeDef.
  63:Drivers/STM32F4xx_HAL_Driver/Src/stm32f4xx_hal_exti.c ****         (++) Provide callback function pointer.
  64:Drivers/STM32F4xx_HAL_Driver/Src/stm32f4xx_hal_exti.c **** 
  65:Drivers/STM32F4xx_HAL_Driver/Src/stm32f4xx_hal_exti.c ****     (#) Get interrupt pending bit using HAL_EXTI_GetPending().
  66:Drivers/STM32F4xx_HAL_Driver/Src/stm32f4xx_hal_exti.c **** 
  67:Drivers/STM32F4xx_HAL_Driver/Src/stm32f4xx_hal_exti.c ****     (#) Clear interrupt pending bit using HAL_EXTI_GetPending().
  68:Drivers/STM32F4xx_HAL_Driver/Src/stm32f4xx_hal_exti.c **** 
  69:Drivers/STM32F4xx_HAL_Driver/Src/stm32f4xx_hal_exti.c ****     (#) Generate software interrupt using HAL_EXTI_GenerateSWI().
  70:Drivers/STM32F4xx_HAL_Driver/Src/stm32f4xx_hal_exti.c **** 
  71:Drivers/STM32F4xx_HAL_Driver/Src/stm32f4xx_hal_exti.c ****   @endverbatim
  72:Drivers/STM32F4xx_HAL_Driver/Src/stm32f4xx_hal_exti.c ****   ******************************************************************************
  73:Drivers/STM32F4xx_HAL_Driver/Src/stm32f4xx_hal_exti.c ****   * @attention
  74:Drivers/STM32F4xx_HAL_Driver/Src/stm32f4xx_hal_exti.c ****   *
  75:Drivers/STM32F4xx_HAL_Driver/Src/stm32f4xx_hal_exti.c ****   * <h2><center>&copy; Copyright (c) 2018 STMicroelectronics.
  76:Drivers/STM32F4xx_HAL_Driver/Src/stm32f4xx_hal_exti.c ****   * All rights reserved.</center></h2>
  77:Drivers/STM32F4xx_HAL_Driver/Src/stm32f4xx_hal_exti.c ****   *
ARM GAS  /tmp/ccWw4OVT.s 			page 3


  78:Drivers/STM32F4xx_HAL_Driver/Src/stm32f4xx_hal_exti.c ****   * This software component is licensed by ST under BSD 3-Clause license,
  79:Drivers/STM32F4xx_HAL_Driver/Src/stm32f4xx_hal_exti.c ****   * the "License"; You may not use this file except in compliance with the
  80:Drivers/STM32F4xx_HAL_Driver/Src/stm32f4xx_hal_exti.c ****   * License. You may obtain a copy of the License at:
  81:Drivers/STM32F4xx_HAL_Driver/Src/stm32f4xx_hal_exti.c ****   *                        opensource.org/licenses/BSD-3-Clause
  82:Drivers/STM32F4xx_HAL_Driver/Src/stm32f4xx_hal_exti.c ****   *
  83:Drivers/STM32F4xx_HAL_Driver/Src/stm32f4xx_hal_exti.c ****   ******************************************************************************
  84:Drivers/STM32F4xx_HAL_Driver/Src/stm32f4xx_hal_exti.c ****   */
  85:Drivers/STM32F4xx_HAL_Driver/Src/stm32f4xx_hal_exti.c **** 
  86:Drivers/STM32F4xx_HAL_Driver/Src/stm32f4xx_hal_exti.c **** /* Includes ------------------------------------------------------------------*/
  87:Drivers/STM32F4xx_HAL_Driver/Src/stm32f4xx_hal_exti.c **** #include "stm32f4xx_hal.h"
  88:Drivers/STM32F4xx_HAL_Driver/Src/stm32f4xx_hal_exti.c **** 
  89:Drivers/STM32F4xx_HAL_Driver/Src/stm32f4xx_hal_exti.c **** /** @addtogroup STM32F4xx_HAL_Driver
  90:Drivers/STM32F4xx_HAL_Driver/Src/stm32f4xx_hal_exti.c ****   * @{
  91:Drivers/STM32F4xx_HAL_Driver/Src/stm32f4xx_hal_exti.c ****   */
  92:Drivers/STM32F4xx_HAL_Driver/Src/stm32f4xx_hal_exti.c **** 
  93:Drivers/STM32F4xx_HAL_Driver/Src/stm32f4xx_hal_exti.c **** /** @addtogroup EXTI
  94:Drivers/STM32F4xx_HAL_Driver/Src/stm32f4xx_hal_exti.c ****   * @{
  95:Drivers/STM32F4xx_HAL_Driver/Src/stm32f4xx_hal_exti.c ****   */
  96:Drivers/STM32F4xx_HAL_Driver/Src/stm32f4xx_hal_exti.c **** /** MISRA C:2012 deviation rule has been granted for following rule:
  97:Drivers/STM32F4xx_HAL_Driver/Src/stm32f4xx_hal_exti.c ****   * Rule-18.1_b - Medium: Array `EXTICR' 1st subscript interval [0,7] may be out
  98:Drivers/STM32F4xx_HAL_Driver/Src/stm32f4xx_hal_exti.c ****   * of bounds [0,3] in following API :
  99:Drivers/STM32F4xx_HAL_Driver/Src/stm32f4xx_hal_exti.c ****   * HAL_EXTI_SetConfigLine
 100:Drivers/STM32F4xx_HAL_Driver/Src/stm32f4xx_hal_exti.c ****   * HAL_EXTI_GetConfigLine
 101:Drivers/STM32F4xx_HAL_Driver/Src/stm32f4xx_hal_exti.c ****   * HAL_EXTI_ClearConfigLine
 102:Drivers/STM32F4xx_HAL_Driver/Src/stm32f4xx_hal_exti.c ****   */
 103:Drivers/STM32F4xx_HAL_Driver/Src/stm32f4xx_hal_exti.c **** 
 104:Drivers/STM32F4xx_HAL_Driver/Src/stm32f4xx_hal_exti.c **** #ifdef HAL_EXTI_MODULE_ENABLED
 105:Drivers/STM32F4xx_HAL_Driver/Src/stm32f4xx_hal_exti.c **** 
 106:Drivers/STM32F4xx_HAL_Driver/Src/stm32f4xx_hal_exti.c **** /* Private typedef -----------------------------------------------------------*/
 107:Drivers/STM32F4xx_HAL_Driver/Src/stm32f4xx_hal_exti.c **** /* Private defines -----------------------------------------------------------*/
 108:Drivers/STM32F4xx_HAL_Driver/Src/stm32f4xx_hal_exti.c **** /** @defgroup EXTI_Private_Constants EXTI Private Constants
 109:Drivers/STM32F4xx_HAL_Driver/Src/stm32f4xx_hal_exti.c ****   * @{
 110:Drivers/STM32F4xx_HAL_Driver/Src/stm32f4xx_hal_exti.c ****   */
 111:Drivers/STM32F4xx_HAL_Driver/Src/stm32f4xx_hal_exti.c **** 
 112:Drivers/STM32F4xx_HAL_Driver/Src/stm32f4xx_hal_exti.c **** /**
 113:Drivers/STM32F4xx_HAL_Driver/Src/stm32f4xx_hal_exti.c ****   * @}
 114:Drivers/STM32F4xx_HAL_Driver/Src/stm32f4xx_hal_exti.c ****   */
 115:Drivers/STM32F4xx_HAL_Driver/Src/stm32f4xx_hal_exti.c **** 
 116:Drivers/STM32F4xx_HAL_Driver/Src/stm32f4xx_hal_exti.c **** /* Private macros ------------------------------------------------------------*/
 117:Drivers/STM32F4xx_HAL_Driver/Src/stm32f4xx_hal_exti.c **** /* Private variables ---------------------------------------------------------*/
 118:Drivers/STM32F4xx_HAL_Driver/Src/stm32f4xx_hal_exti.c **** /* Private function prototypes -----------------------------------------------*/
 119:Drivers/STM32F4xx_HAL_Driver/Src/stm32f4xx_hal_exti.c **** /* Exported functions --------------------------------------------------------*/
 120:Drivers/STM32F4xx_HAL_Driver/Src/stm32f4xx_hal_exti.c **** 
 121:Drivers/STM32F4xx_HAL_Driver/Src/stm32f4xx_hal_exti.c **** /** @addtogroup EXTI_Exported_Functions
 122:Drivers/STM32F4xx_HAL_Driver/Src/stm32f4xx_hal_exti.c ****   * @{
 123:Drivers/STM32F4xx_HAL_Driver/Src/stm32f4xx_hal_exti.c ****   */
 124:Drivers/STM32F4xx_HAL_Driver/Src/stm32f4xx_hal_exti.c **** 
 125:Drivers/STM32F4xx_HAL_Driver/Src/stm32f4xx_hal_exti.c **** /** @addtogroup EXTI_Exported_Functions_Group1
 126:Drivers/STM32F4xx_HAL_Driver/Src/stm32f4xx_hal_exti.c ****   *  @brief    Configuration functions
 127:Drivers/STM32F4xx_HAL_Driver/Src/stm32f4xx_hal_exti.c ****   *
 128:Drivers/STM32F4xx_HAL_Driver/Src/stm32f4xx_hal_exti.c **** @verbatim
 129:Drivers/STM32F4xx_HAL_Driver/Src/stm32f4xx_hal_exti.c ****  ===============================================================================
 130:Drivers/STM32F4xx_HAL_Driver/Src/stm32f4xx_hal_exti.c ****               ##### Configuration functions #####
 131:Drivers/STM32F4xx_HAL_Driver/Src/stm32f4xx_hal_exti.c ****  ===============================================================================
 132:Drivers/STM32F4xx_HAL_Driver/Src/stm32f4xx_hal_exti.c **** 
 133:Drivers/STM32F4xx_HAL_Driver/Src/stm32f4xx_hal_exti.c **** @endverbatim
 134:Drivers/STM32F4xx_HAL_Driver/Src/stm32f4xx_hal_exti.c ****   * @{
ARM GAS  /tmp/ccWw4OVT.s 			page 4


 135:Drivers/STM32F4xx_HAL_Driver/Src/stm32f4xx_hal_exti.c ****   */
 136:Drivers/STM32F4xx_HAL_Driver/Src/stm32f4xx_hal_exti.c **** 
 137:Drivers/STM32F4xx_HAL_Driver/Src/stm32f4xx_hal_exti.c **** /**
 138:Drivers/STM32F4xx_HAL_Driver/Src/stm32f4xx_hal_exti.c ****   * @brief  Set configuration of a dedicated Exti line.
 139:Drivers/STM32F4xx_HAL_Driver/Src/stm32f4xx_hal_exti.c ****   * @param  hexti Exti handle.
 140:Drivers/STM32F4xx_HAL_Driver/Src/stm32f4xx_hal_exti.c ****   * @param  pExtiConfig Pointer on EXTI configuration to be set.
 141:Drivers/STM32F4xx_HAL_Driver/Src/stm32f4xx_hal_exti.c ****   * @retval HAL Status.
 142:Drivers/STM32F4xx_HAL_Driver/Src/stm32f4xx_hal_exti.c ****   */
 143:Drivers/STM32F4xx_HAL_Driver/Src/stm32f4xx_hal_exti.c **** HAL_StatusTypeDef HAL_EXTI_SetConfigLine(EXTI_HandleTypeDef *hexti, EXTI_ConfigTypeDef *pExtiConfig
 144:Drivers/STM32F4xx_HAL_Driver/Src/stm32f4xx_hal_exti.c **** {
  35              		.loc 1 144 1 view -0
  36              		.cfi_startproc
  37              		@ args = 0, pretend = 0, frame = 0
  38              		@ frame_needed = 0, uses_anonymous_args = 0
 145:Drivers/STM32F4xx_HAL_Driver/Src/stm32f4xx_hal_exti.c ****   uint32_t regval;
  39              		.loc 1 145 3 view .LVU1
 146:Drivers/STM32F4xx_HAL_Driver/Src/stm32f4xx_hal_exti.c ****   uint32_t linepos;
  40              		.loc 1 146 3 view .LVU2
 147:Drivers/STM32F4xx_HAL_Driver/Src/stm32f4xx_hal_exti.c ****   uint32_t maskline;
  41              		.loc 1 147 3 view .LVU3
 148:Drivers/STM32F4xx_HAL_Driver/Src/stm32f4xx_hal_exti.c **** 
 149:Drivers/STM32F4xx_HAL_Driver/Src/stm32f4xx_hal_exti.c ****   /* Check null pointer */
 150:Drivers/STM32F4xx_HAL_Driver/Src/stm32f4xx_hal_exti.c ****   if ((hexti == NULL) || (pExtiConfig == NULL))
  42              		.loc 1 150 3 view .LVU4
  43              		.loc 1 150 6 is_stmt 0 view .LVU5
  44 0000 0028     		cmp	r0, #0
  45 0002 00F09E80 		beq	.L19
 144:Drivers/STM32F4xx_HAL_Driver/Src/stm32f4xx_hal_exti.c ****   uint32_t regval;
  46              		.loc 1 144 1 discriminator 1 view .LVU6
  47 0006 F8B5     		push	{r3, r4, r5, r6, r7, lr}
  48              	.LCFI0:
  49              		.cfi_def_cfa_offset 24
  50              		.cfi_offset 3, -24
  51              		.cfi_offset 4, -20
  52              		.cfi_offset 5, -16
  53              		.cfi_offset 6, -12
  54              		.cfi_offset 7, -8
  55              		.cfi_offset 14, -4
  56 0008 0C46     		mov	r4, r1
  57 000a 0546     		mov	r5, r0
  58              		.loc 1 150 23 discriminator 1 view .LVU7
  59 000c 0029     		cmp	r1, #0
  60 000e 00F09A80 		beq	.L20
 151:Drivers/STM32F4xx_HAL_Driver/Src/stm32f4xx_hal_exti.c ****   {
 152:Drivers/STM32F4xx_HAL_Driver/Src/stm32f4xx_hal_exti.c ****     return HAL_ERROR;
 153:Drivers/STM32F4xx_HAL_Driver/Src/stm32f4xx_hal_exti.c ****   }
 154:Drivers/STM32F4xx_HAL_Driver/Src/stm32f4xx_hal_exti.c **** 
 155:Drivers/STM32F4xx_HAL_Driver/Src/stm32f4xx_hal_exti.c ****   /* Check parameters */
 156:Drivers/STM32F4xx_HAL_Driver/Src/stm32f4xx_hal_exti.c ****   assert_param(IS_EXTI_LINE(pExtiConfig->Line));
  61              		.loc 1 156 3 is_stmt 1 view .LVU8
  62 0012 0A68     		ldr	r2, [r1]
  63 0014 22F0C063 		bic	r3, r2, #100663296
  64 0018 23F01F03 		bic	r3, r3, #31
  65 001c 3BB9     		cbnz	r3, .L3
  66              		.loc 1 156 3 is_stmt 0 discriminator 2 view .LVU9
  67 001e 02F0C063 		and	r3, r2, #100663296
  68 0022 B3F1007F 		cmp	r3, #33554432
ARM GAS  /tmp/ccWw4OVT.s 			page 5


  69 0026 46D0     		beq	.L4
  70              		.loc 1 156 3 discriminator 3 view .LVU10
  71 0028 B3F1C06F 		cmp	r3, #100663296
  72 002c 43D0     		beq	.L4
  73              	.L3:
  74              		.loc 1 156 3 discriminator 7 view .LVU11
  75 002e 9C21     		movs	r1, #156
  76              	.LVL1:
  77              		.loc 1 156 3 discriminator 7 view .LVU12
  78 0030 4648     		ldr	r0, .L29
  79              	.LVL2:
  80              		.loc 1 156 3 discriminator 7 view .LVU13
  81 0032 FFF7FEFF 		bl	assert_failed
  82              	.LVL3:
  83              	.L5:
 157:Drivers/STM32F4xx_HAL_Driver/Src/stm32f4xx_hal_exti.c ****   assert_param(IS_EXTI_MODE(pExtiConfig->Mode));
  84              		.loc 1 157 3 is_stmt 1 view .LVU14
  85 0036 6368     		ldr	r3, [r4, #4]
  86 0038 13F0030F 		tst	r3, #3
  87 003c 02D0     		beq	.L6
  88              		.loc 1 157 3 is_stmt 0 discriminator 2 view .LVU15
  89 003e 33F00303 		bics	r3, r3, #3
  90 0042 03D0     		beq	.L7
  91              	.L6:
  92              		.loc 1 157 3 discriminator 3 view .LVU16
  93 0044 9D21     		movs	r1, #157
  94 0046 4148     		ldr	r0, .L29
  95 0048 FFF7FEFF 		bl	assert_failed
  96              	.LVL4:
  97              	.L7:
 158:Drivers/STM32F4xx_HAL_Driver/Src/stm32f4xx_hal_exti.c **** 
 159:Drivers/STM32F4xx_HAL_Driver/Src/stm32f4xx_hal_exti.c ****   /* Assign line number to handle */
 160:Drivers/STM32F4xx_HAL_Driver/Src/stm32f4xx_hal_exti.c ****   hexti->Line = pExtiConfig->Line;
  98              		.loc 1 160 3 is_stmt 1 view .LVU17
  99              		.loc 1 160 28 is_stmt 0 view .LVU18
 100 004c 2668     		ldr	r6, [r4]
 101              		.loc 1 160 15 view .LVU19
 102 004e 2E60     		str	r6, [r5]
 161:Drivers/STM32F4xx_HAL_Driver/Src/stm32f4xx_hal_exti.c **** 
 162:Drivers/STM32F4xx_HAL_Driver/Src/stm32f4xx_hal_exti.c ****   /* Compute line mask */
 163:Drivers/STM32F4xx_HAL_Driver/Src/stm32f4xx_hal_exti.c ****   linepos = (pExtiConfig->Line & EXTI_PIN_MASK);
 103              		.loc 1 163 3 is_stmt 1 view .LVU20
 104              		.loc 1 163 11 is_stmt 0 view .LVU21
 105 0050 06F01F07 		and	r7, r6, #31
 106              	.LVL5:
 164:Drivers/STM32F4xx_HAL_Driver/Src/stm32f4xx_hal_exti.c ****   maskline = (1uL << linepos);
 107              		.loc 1 164 3 is_stmt 1 view .LVU22
 108              		.loc 1 164 12 is_stmt 0 view .LVU23
 109 0054 0125     		movs	r5, #1
 110              	.LVL6:
 111              		.loc 1 164 12 view .LVU24
 112 0056 BD40     		lsls	r5, r5, r7
 113              	.LVL7:
 165:Drivers/STM32F4xx_HAL_Driver/Src/stm32f4xx_hal_exti.c **** 
 166:Drivers/STM32F4xx_HAL_Driver/Src/stm32f4xx_hal_exti.c ****   /* Configure triggers for configurable lines */
 167:Drivers/STM32F4xx_HAL_Driver/Src/stm32f4xx_hal_exti.c ****   if ((pExtiConfig->Line & EXTI_CONFIG) != 0x00u)
 114              		.loc 1 167 3 is_stmt 1 view .LVU25
ARM GAS  /tmp/ccWw4OVT.s 			page 6


 115              		.loc 1 167 6 is_stmt 0 view .LVU26
 116 0058 16F0007F 		tst	r6, #33554432
 117 005c 19D0     		beq	.L8
 168:Drivers/STM32F4xx_HAL_Driver/Src/stm32f4xx_hal_exti.c ****   {
 169:Drivers/STM32F4xx_HAL_Driver/Src/stm32f4xx_hal_exti.c ****     assert_param(IS_EXTI_TRIGGER(pExtiConfig->Trigger));
 118              		.loc 1 169 5 is_stmt 1 view .LVU27
 119 005e A368     		ldr	r3, [r4, #8]
 120 0060 33F00303 		bics	r3, r3, #3
 121 0064 2CD1     		bne	.L25
 122              	.L9:
 170:Drivers/STM32F4xx_HAL_Driver/Src/stm32f4xx_hal_exti.c **** 
 171:Drivers/STM32F4xx_HAL_Driver/Src/stm32f4xx_hal_exti.c ****     /* Configure rising trigger */
 172:Drivers/STM32F4xx_HAL_Driver/Src/stm32f4xx_hal_exti.c ****     /* Mask or set line */
 173:Drivers/STM32F4xx_HAL_Driver/Src/stm32f4xx_hal_exti.c ****     if ((pExtiConfig->Trigger & EXTI_TRIGGER_RISING) != 0x00u)
 123              		.loc 1 173 5 view .LVU28
 124              		.loc 1 173 21 is_stmt 0 view .LVU29
 125 0066 A368     		ldr	r3, [r4, #8]
 126              		.loc 1 173 8 view .LVU30
 127 0068 13F0010F 		tst	r3, #1
 128 006c 2DD0     		beq	.L10
 174:Drivers/STM32F4xx_HAL_Driver/Src/stm32f4xx_hal_exti.c ****     {
 175:Drivers/STM32F4xx_HAL_Driver/Src/stm32f4xx_hal_exti.c ****       EXTI->RTSR |= maskline;
 129              		.loc 1 175 7 is_stmt 1 view .LVU31
 130              		.loc 1 175 18 is_stmt 0 view .LVU32
 131 006e 384A     		ldr	r2, .L29+4
 132 0070 9368     		ldr	r3, [r2, #8]
 133 0072 2B43     		orrs	r3, r3, r5
 134 0074 9360     		str	r3, [r2, #8]
 135              	.L11:
 176:Drivers/STM32F4xx_HAL_Driver/Src/stm32f4xx_hal_exti.c ****     }
 177:Drivers/STM32F4xx_HAL_Driver/Src/stm32f4xx_hal_exti.c ****     else
 178:Drivers/STM32F4xx_HAL_Driver/Src/stm32f4xx_hal_exti.c ****     {
 179:Drivers/STM32F4xx_HAL_Driver/Src/stm32f4xx_hal_exti.c ****       EXTI->RTSR &= ~maskline;
 180:Drivers/STM32F4xx_HAL_Driver/Src/stm32f4xx_hal_exti.c ****     }
 181:Drivers/STM32F4xx_HAL_Driver/Src/stm32f4xx_hal_exti.c **** 
 182:Drivers/STM32F4xx_HAL_Driver/Src/stm32f4xx_hal_exti.c ****     /* Configure falling trigger */
 183:Drivers/STM32F4xx_HAL_Driver/Src/stm32f4xx_hal_exti.c ****     /* Mask or set line */
 184:Drivers/STM32F4xx_HAL_Driver/Src/stm32f4xx_hal_exti.c ****     if ((pExtiConfig->Trigger & EXTI_TRIGGER_FALLING) != 0x00u)
 136              		.loc 1 184 5 is_stmt 1 view .LVU33
 137              		.loc 1 184 21 is_stmt 0 view .LVU34
 138 0076 A368     		ldr	r3, [r4, #8]
 139              		.loc 1 184 8 view .LVU35
 140 0078 13F0020F 		tst	r3, #2
 141 007c 2BD0     		beq	.L12
 185:Drivers/STM32F4xx_HAL_Driver/Src/stm32f4xx_hal_exti.c ****     {
 186:Drivers/STM32F4xx_HAL_Driver/Src/stm32f4xx_hal_exti.c ****       EXTI->FTSR |= maskline;
 142              		.loc 1 186 7 is_stmt 1 view .LVU36
 143              		.loc 1 186 18 is_stmt 0 view .LVU37
 144 007e 344A     		ldr	r2, .L29+4
 145 0080 D368     		ldr	r3, [r2, #12]
 146 0082 2B43     		orrs	r3, r3, r5
 147 0084 D360     		str	r3, [r2, #12]
 148              	.L13:
 187:Drivers/STM32F4xx_HAL_Driver/Src/stm32f4xx_hal_exti.c ****     }
 188:Drivers/STM32F4xx_HAL_Driver/Src/stm32f4xx_hal_exti.c ****     else
 189:Drivers/STM32F4xx_HAL_Driver/Src/stm32f4xx_hal_exti.c ****     {
 190:Drivers/STM32F4xx_HAL_Driver/Src/stm32f4xx_hal_exti.c ****       EXTI->FTSR &= ~maskline;
ARM GAS  /tmp/ccWw4OVT.s 			page 7


 191:Drivers/STM32F4xx_HAL_Driver/Src/stm32f4xx_hal_exti.c ****     }
 192:Drivers/STM32F4xx_HAL_Driver/Src/stm32f4xx_hal_exti.c **** 
 193:Drivers/STM32F4xx_HAL_Driver/Src/stm32f4xx_hal_exti.c **** 
 194:Drivers/STM32F4xx_HAL_Driver/Src/stm32f4xx_hal_exti.c ****     /* Configure gpio port selection in case of gpio exti line */
 195:Drivers/STM32F4xx_HAL_Driver/Src/stm32f4xx_hal_exti.c ****     if ((pExtiConfig->Line & EXTI_GPIO) == EXTI_GPIO)
 149              		.loc 1 195 5 is_stmt 1 view .LVU38
 150              		.loc 1 195 21 is_stmt 0 view .LVU39
 151 0086 2368     		ldr	r3, [r4]
 152              		.loc 1 195 28 view .LVU40
 153 0088 03F0C063 		and	r3, r3, #100663296
 154              		.loc 1 195 8 view .LVU41
 155 008c B3F1C06F 		cmp	r3, #100663296
 156 0090 27D0     		beq	.L26
 157              	.LVL8:
 158              	.L8:
 196:Drivers/STM32F4xx_HAL_Driver/Src/stm32f4xx_hal_exti.c ****     {
 197:Drivers/STM32F4xx_HAL_Driver/Src/stm32f4xx_hal_exti.c ****       assert_param(IS_EXTI_GPIO_PORT(pExtiConfig->GPIOSel));
 198:Drivers/STM32F4xx_HAL_Driver/Src/stm32f4xx_hal_exti.c ****       assert_param(IS_EXTI_GPIO_PIN(linepos));
 199:Drivers/STM32F4xx_HAL_Driver/Src/stm32f4xx_hal_exti.c **** 
 200:Drivers/STM32F4xx_HAL_Driver/Src/stm32f4xx_hal_exti.c ****       regval = SYSCFG->EXTICR[linepos >> 2u];
 201:Drivers/STM32F4xx_HAL_Driver/Src/stm32f4xx_hal_exti.c ****       regval &= ~(SYSCFG_EXTICR1_EXTI0 << (SYSCFG_EXTICR1_EXTI1_Pos * (linepos & 0x03u)));
 202:Drivers/STM32F4xx_HAL_Driver/Src/stm32f4xx_hal_exti.c ****       regval |= (pExtiConfig->GPIOSel << (SYSCFG_EXTICR1_EXTI1_Pos * (linepos & 0x03u)));
 203:Drivers/STM32F4xx_HAL_Driver/Src/stm32f4xx_hal_exti.c ****       SYSCFG->EXTICR[linepos >> 2u] = regval;
 204:Drivers/STM32F4xx_HAL_Driver/Src/stm32f4xx_hal_exti.c ****     }
 205:Drivers/STM32F4xx_HAL_Driver/Src/stm32f4xx_hal_exti.c ****   }
 206:Drivers/STM32F4xx_HAL_Driver/Src/stm32f4xx_hal_exti.c **** 
 207:Drivers/STM32F4xx_HAL_Driver/Src/stm32f4xx_hal_exti.c ****   /* Configure interrupt mode : read current mode */
 208:Drivers/STM32F4xx_HAL_Driver/Src/stm32f4xx_hal_exti.c ****   /* Mask or set line */
 209:Drivers/STM32F4xx_HAL_Driver/Src/stm32f4xx_hal_exti.c ****   if ((pExtiConfig->Mode & EXTI_MODE_INTERRUPT) != 0x00u)
 159              		.loc 1 209 3 is_stmt 1 view .LVU42
 160              		.loc 1 209 19 is_stmt 0 view .LVU43
 161 0092 6368     		ldr	r3, [r4, #4]
 162              		.loc 1 209 6 view .LVU44
 163 0094 13F0010F 		tst	r3, #1
 164 0098 46D0     		beq	.L16
 210:Drivers/STM32F4xx_HAL_Driver/Src/stm32f4xx_hal_exti.c ****   {
 211:Drivers/STM32F4xx_HAL_Driver/Src/stm32f4xx_hal_exti.c ****     EXTI->IMR |= maskline;
 165              		.loc 1 211 5 is_stmt 1 view .LVU45
 166              		.loc 1 211 15 is_stmt 0 view .LVU46
 167 009a 2D4A     		ldr	r2, .L29+4
 168 009c 1368     		ldr	r3, [r2]
 169 009e 2B43     		orrs	r3, r3, r5
 170 00a0 1360     		str	r3, [r2]
 171              	.L17:
 212:Drivers/STM32F4xx_HAL_Driver/Src/stm32f4xx_hal_exti.c ****   }
 213:Drivers/STM32F4xx_HAL_Driver/Src/stm32f4xx_hal_exti.c ****   else
 214:Drivers/STM32F4xx_HAL_Driver/Src/stm32f4xx_hal_exti.c ****   {
 215:Drivers/STM32F4xx_HAL_Driver/Src/stm32f4xx_hal_exti.c ****     EXTI->IMR &= ~maskline;
 216:Drivers/STM32F4xx_HAL_Driver/Src/stm32f4xx_hal_exti.c ****   }
 217:Drivers/STM32F4xx_HAL_Driver/Src/stm32f4xx_hal_exti.c **** 
 218:Drivers/STM32F4xx_HAL_Driver/Src/stm32f4xx_hal_exti.c ****   /* Configure event mode : read current mode */
 219:Drivers/STM32F4xx_HAL_Driver/Src/stm32f4xx_hal_exti.c ****   /* Mask or set line */
 220:Drivers/STM32F4xx_HAL_Driver/Src/stm32f4xx_hal_exti.c ****   if ((pExtiConfig->Mode & EXTI_MODE_EVENT) != 0x00u)
 172              		.loc 1 220 3 is_stmt 1 view .LVU47
 173              		.loc 1 220 19 is_stmt 0 view .LVU48
 174 00a2 6368     		ldr	r3, [r4, #4]
 175              		.loc 1 220 6 view .LVU49
ARM GAS  /tmp/ccWw4OVT.s 			page 8


 176 00a4 13F0020F 		tst	r3, #2
 177 00a8 44D0     		beq	.L18
 221:Drivers/STM32F4xx_HAL_Driver/Src/stm32f4xx_hal_exti.c ****   {
 222:Drivers/STM32F4xx_HAL_Driver/Src/stm32f4xx_hal_exti.c ****     EXTI->EMR |= maskline;
 178              		.loc 1 222 5 is_stmt 1 view .LVU50
 179              		.loc 1 222 15 is_stmt 0 view .LVU51
 180 00aa 294A     		ldr	r2, .L29+4
 181 00ac 5368     		ldr	r3, [r2, #4]
 182 00ae 1D43     		orrs	r5, r5, r3
 183              	.LVL9:
 184              		.loc 1 222 15 view .LVU52
 185 00b0 5560     		str	r5, [r2, #4]
 223:Drivers/STM32F4xx_HAL_Driver/Src/stm32f4xx_hal_exti.c ****   }
 224:Drivers/STM32F4xx_HAL_Driver/Src/stm32f4xx_hal_exti.c ****   else
 225:Drivers/STM32F4xx_HAL_Driver/Src/stm32f4xx_hal_exti.c ****   {
 226:Drivers/STM32F4xx_HAL_Driver/Src/stm32f4xx_hal_exti.c ****     EXTI->EMR &= ~maskline;
 227:Drivers/STM32F4xx_HAL_Driver/Src/stm32f4xx_hal_exti.c ****   }
 228:Drivers/STM32F4xx_HAL_Driver/Src/stm32f4xx_hal_exti.c **** 
 229:Drivers/STM32F4xx_HAL_Driver/Src/stm32f4xx_hal_exti.c ****   return HAL_OK;
 186              		.loc 1 229 10 view .LVU53
 187 00b2 0020     		movs	r0, #0
 188              	.L2:
 230:Drivers/STM32F4xx_HAL_Driver/Src/stm32f4xx_hal_exti.c **** }
 189              		.loc 1 230 1 view .LVU54
 190 00b4 F8BD     		pop	{r3, r4, r5, r6, r7, pc}
 191              	.LVL10:
 192              	.L4:
 156:Drivers/STM32F4xx_HAL_Driver/Src/stm32f4xx_hal_exti.c ****   assert_param(IS_EXTI_MODE(pExtiConfig->Mode));
 193              		.loc 1 156 3 discriminator 6 view .LVU55
 194 00b6 02F01F02 		and	r2, r2, #31
 195 00ba 162A     		cmp	r2, #22
 196 00bc BBD9     		bls	.L5
 197 00be B6E7     		b	.L3
 198              	.LVL11:
 199              	.L25:
 169:Drivers/STM32F4xx_HAL_Driver/Src/stm32f4xx_hal_exti.c **** 
 200              		.loc 1 169 5 discriminator 1 view .LVU56
 201 00c0 A921     		movs	r1, #169
 202 00c2 2248     		ldr	r0, .L29
 203 00c4 FFF7FEFF 		bl	assert_failed
 204              	.LVL12:
 205 00c8 CDE7     		b	.L9
 206              	.L10:
 179:Drivers/STM32F4xx_HAL_Driver/Src/stm32f4xx_hal_exti.c ****     }
 207              		.loc 1 179 7 is_stmt 1 view .LVU57
 179:Drivers/STM32F4xx_HAL_Driver/Src/stm32f4xx_hal_exti.c ****     }
 208              		.loc 1 179 18 is_stmt 0 view .LVU58
 209 00ca 214A     		ldr	r2, .L29+4
 210 00cc 9368     		ldr	r3, [r2, #8]
 211 00ce 23EA0503 		bic	r3, r3, r5
 212 00d2 9360     		str	r3, [r2, #8]
 213 00d4 CFE7     		b	.L11
 214              	.L12:
 190:Drivers/STM32F4xx_HAL_Driver/Src/stm32f4xx_hal_exti.c ****     }
 215              		.loc 1 190 7 is_stmt 1 view .LVU59
 190:Drivers/STM32F4xx_HAL_Driver/Src/stm32f4xx_hal_exti.c ****     }
 216              		.loc 1 190 18 is_stmt 0 view .LVU60
ARM GAS  /tmp/ccWw4OVT.s 			page 9


 217 00d6 1E4A     		ldr	r2, .L29+4
 218 00d8 D368     		ldr	r3, [r2, #12]
 219 00da 23EA0503 		bic	r3, r3, r5
 220 00de D360     		str	r3, [r2, #12]
 221 00e0 D1E7     		b	.L13
 222              	.L26:
 197:Drivers/STM32F4xx_HAL_Driver/Src/stm32f4xx_hal_exti.c ****       assert_param(IS_EXTI_GPIO_PIN(linepos));
 223              		.loc 1 197 7 is_stmt 1 view .LVU61
 224 00e2 E368     		ldr	r3, [r4, #12]
 225 00e4 082B     		cmp	r3, #8
 226 00e6 15D8     		bhi	.L27
 227              	.L14:
 198:Drivers/STM32F4xx_HAL_Driver/Src/stm32f4xx_hal_exti.c **** 
 228              		.loc 1 198 7 view .LVU62
 229 00e8 16F0100F 		tst	r6, #16
 230 00ec 17D1     		bne	.L28
 231              	.L15:
 200:Drivers/STM32F4xx_HAL_Driver/Src/stm32f4xx_hal_exti.c ****       regval &= ~(SYSCFG_EXTICR1_EXTI0 << (SYSCFG_EXTICR1_EXTI1_Pos * (linepos & 0x03u)));
 232              		.loc 1 200 7 view .LVU63
 200:Drivers/STM32F4xx_HAL_Driver/Src/stm32f4xx_hal_exti.c ****       regval &= ~(SYSCFG_EXTICR1_EXTI0 << (SYSCFG_EXTICR1_EXTI1_Pos * (linepos & 0x03u)));
 233              		.loc 1 200 39 is_stmt 0 view .LVU64
 234 00ee BF08     		lsrs	r7, r7, #2
 235              	.LVL13:
 200:Drivers/STM32F4xx_HAL_Driver/Src/stm32f4xx_hal_exti.c ****       regval &= ~(SYSCFG_EXTICR1_EXTI0 << (SYSCFG_EXTICR1_EXTI1_Pos * (linepos & 0x03u)));
 236              		.loc 1 200 14 view .LVU65
 237 00f0 1849     		ldr	r1, .L29+8
 238 00f2 0237     		adds	r7, r7, #2
 239 00f4 51F82720 		ldr	r2, [r1, r7, lsl #2]
 240              	.LVL14:
 201:Drivers/STM32F4xx_HAL_Driver/Src/stm32f4xx_hal_exti.c ****       regval |= (pExtiConfig->GPIOSel << (SYSCFG_EXTICR1_EXTI1_Pos * (linepos & 0x03u)));
 241              		.loc 1 201 7 is_stmt 1 view .LVU66
 201:Drivers/STM32F4xx_HAL_Driver/Src/stm32f4xx_hal_exti.c ****       regval |= (pExtiConfig->GPIOSel << (SYSCFG_EXTICR1_EXTI1_Pos * (linepos & 0x03u)));
 242              		.loc 1 201 80 is_stmt 0 view .LVU67
 243 00f8 06F00306 		and	r6, r6, #3
 244              	.LVL15:
 201:Drivers/STM32F4xx_HAL_Driver/Src/stm32f4xx_hal_exti.c ****       regval |= (pExtiConfig->GPIOSel << (SYSCFG_EXTICR1_EXTI1_Pos * (linepos & 0x03u)));
 245              		.loc 1 201 69 view .LVU68
 246 00fc B600     		lsls	r6, r6, #2
 201:Drivers/STM32F4xx_HAL_Driver/Src/stm32f4xx_hal_exti.c ****       regval |= (pExtiConfig->GPIOSel << (SYSCFG_EXTICR1_EXTI1_Pos * (linepos & 0x03u)));
 247              		.loc 1 201 40 view .LVU69
 248 00fe 0F23     		movs	r3, #15
 249 0100 B340     		lsls	r3, r3, r6
 201:Drivers/STM32F4xx_HAL_Driver/Src/stm32f4xx_hal_exti.c ****       regval |= (pExtiConfig->GPIOSel << (SYSCFG_EXTICR1_EXTI1_Pos * (linepos & 0x03u)));
 250              		.loc 1 201 14 view .LVU70
 251 0102 22EA0302 		bic	r2, r2, r3
 252              	.LVL16:
 202:Drivers/STM32F4xx_HAL_Driver/Src/stm32f4xx_hal_exti.c ****       SYSCFG->EXTICR[linepos >> 2u] = regval;
 253              		.loc 1 202 7 is_stmt 1 view .LVU71
 202:Drivers/STM32F4xx_HAL_Driver/Src/stm32f4xx_hal_exti.c ****       SYSCFG->EXTICR[linepos >> 2u] = regval;
 254              		.loc 1 202 29 is_stmt 0 view .LVU72
 255 0106 E368     		ldr	r3, [r4, #12]
 202:Drivers/STM32F4xx_HAL_Driver/Src/stm32f4xx_hal_exti.c ****       SYSCFG->EXTICR[linepos >> 2u] = regval;
 256              		.loc 1 202 39 view .LVU73
 257 0108 03FA06F6 		lsl	r6, r3, r6
 202:Drivers/STM32F4xx_HAL_Driver/Src/stm32f4xx_hal_exti.c ****       SYSCFG->EXTICR[linepos >> 2u] = regval;
 258              		.loc 1 202 14 view .LVU74
 259 010c 1643     		orrs	r6, r6, r2
ARM GAS  /tmp/ccWw4OVT.s 			page 10


 260              	.LVL17:
 203:Drivers/STM32F4xx_HAL_Driver/Src/stm32f4xx_hal_exti.c ****     }
 261              		.loc 1 203 7 is_stmt 1 view .LVU75
 203:Drivers/STM32F4xx_HAL_Driver/Src/stm32f4xx_hal_exti.c ****     }
 262              		.loc 1 203 37 is_stmt 0 view .LVU76
 263 010e 41F82760 		str	r6, [r1, r7, lsl #2]
 264 0112 BEE7     		b	.L8
 265              	.LVL18:
 266              	.L27:
 197:Drivers/STM32F4xx_HAL_Driver/Src/stm32f4xx_hal_exti.c ****       assert_param(IS_EXTI_GPIO_PIN(linepos));
 267              		.loc 1 197 7 discriminator 1 view .LVU77
 268 0114 C521     		movs	r1, #197
 269 0116 0D48     		ldr	r0, .L29
 270 0118 FFF7FEFF 		bl	assert_failed
 271              	.LVL19:
 272 011c E4E7     		b	.L14
 273              	.L28:
 198:Drivers/STM32F4xx_HAL_Driver/Src/stm32f4xx_hal_exti.c **** 
 274              		.loc 1 198 7 discriminator 1 view .LVU78
 275 011e C621     		movs	r1, #198
 276 0120 0A48     		ldr	r0, .L29
 277 0122 FFF7FEFF 		bl	assert_failed
 278              	.LVL20:
 279 0126 E2E7     		b	.L15
 280              	.LVL21:
 281              	.L16:
 215:Drivers/STM32F4xx_HAL_Driver/Src/stm32f4xx_hal_exti.c ****   }
 282              		.loc 1 215 5 is_stmt 1 view .LVU79
 215:Drivers/STM32F4xx_HAL_Driver/Src/stm32f4xx_hal_exti.c ****   }
 283              		.loc 1 215 15 is_stmt 0 view .LVU80
 284 0128 094A     		ldr	r2, .L29+4
 285 012a 1368     		ldr	r3, [r2]
 286 012c 23EA0503 		bic	r3, r3, r5
 287 0130 1360     		str	r3, [r2]
 288 0132 B6E7     		b	.L17
 289              	.L18:
 226:Drivers/STM32F4xx_HAL_Driver/Src/stm32f4xx_hal_exti.c ****   }
 290              		.loc 1 226 5 is_stmt 1 view .LVU81
 226:Drivers/STM32F4xx_HAL_Driver/Src/stm32f4xx_hal_exti.c ****   }
 291              		.loc 1 226 15 is_stmt 0 view .LVU82
 292 0134 064A     		ldr	r2, .L29+4
 293 0136 5368     		ldr	r3, [r2, #4]
 294 0138 23EA0505 		bic	r5, r3, r5
 295              	.LVL22:
 226:Drivers/STM32F4xx_HAL_Driver/Src/stm32f4xx_hal_exti.c ****   }
 296              		.loc 1 226 15 view .LVU83
 297 013c 5560     		str	r5, [r2, #4]
 229:Drivers/STM32F4xx_HAL_Driver/Src/stm32f4xx_hal_exti.c **** }
 298              		.loc 1 229 10 view .LVU84
 299 013e 0020     		movs	r0, #0
 300 0140 B8E7     		b	.L2
 301              	.LVL23:
 302              	.L19:
 303              	.LCFI1:
 304              		.cfi_def_cfa_offset 0
 305              		.cfi_restore 3
 306              		.cfi_restore 4
ARM GAS  /tmp/ccWw4OVT.s 			page 11


 307              		.cfi_restore 5
 308              		.cfi_restore 6
 309              		.cfi_restore 7
 310              		.cfi_restore 14
 152:Drivers/STM32F4xx_HAL_Driver/Src/stm32f4xx_hal_exti.c ****   }
 311              		.loc 1 152 12 view .LVU85
 312 0142 0120     		movs	r0, #1
 313              	.LVL24:
 314              		.loc 1 230 1 view .LVU86
 315 0144 7047     		bx	lr
 316              	.LVL25:
 317              	.L20:
 318              	.LCFI2:
 319              		.cfi_def_cfa_offset 24
 320              		.cfi_offset 3, -24
 321              		.cfi_offset 4, -20
 322              		.cfi_offset 5, -16
 323              		.cfi_offset 6, -12
 324              		.cfi_offset 7, -8
 325              		.cfi_offset 14, -4
 152:Drivers/STM32F4xx_HAL_Driver/Src/stm32f4xx_hal_exti.c ****   }
 326              		.loc 1 152 12 view .LVU87
 327 0146 0120     		movs	r0, #1
 328              	.LVL26:
 152:Drivers/STM32F4xx_HAL_Driver/Src/stm32f4xx_hal_exti.c ****   }
 329              		.loc 1 152 12 view .LVU88
 330 0148 B4E7     		b	.L2
 331              	.L30:
 332 014a 00BF     		.align	2
 333              	.L29:
 334 014c 00000000 		.word	.LC0
 335 0150 003C0140 		.word	1073822720
 336 0154 00380140 		.word	1073821696
 337              		.cfi_endproc
 338              	.LFE130:
 340              		.section	.text.HAL_EXTI_GetConfigLine,"ax",%progbits
 341              		.align	1
 342              		.global	HAL_EXTI_GetConfigLine
 343              		.syntax unified
 344              		.thumb
 345              		.thumb_func
 346              		.fpu fpv4-sp-d16
 348              	HAL_EXTI_GetConfigLine:
 349              	.LVL27:
 350              	.LFB131:
 231:Drivers/STM32F4xx_HAL_Driver/Src/stm32f4xx_hal_exti.c **** 
 232:Drivers/STM32F4xx_HAL_Driver/Src/stm32f4xx_hal_exti.c **** /**
 233:Drivers/STM32F4xx_HAL_Driver/Src/stm32f4xx_hal_exti.c ****   * @brief  Get configuration of a dedicated Exti line.
 234:Drivers/STM32F4xx_HAL_Driver/Src/stm32f4xx_hal_exti.c ****   * @param  hexti Exti handle.
 235:Drivers/STM32F4xx_HAL_Driver/Src/stm32f4xx_hal_exti.c ****   * @param  pExtiConfig Pointer on structure to store Exti configuration.
 236:Drivers/STM32F4xx_HAL_Driver/Src/stm32f4xx_hal_exti.c ****   * @retval HAL Status.
 237:Drivers/STM32F4xx_HAL_Driver/Src/stm32f4xx_hal_exti.c ****   */
 238:Drivers/STM32F4xx_HAL_Driver/Src/stm32f4xx_hal_exti.c **** HAL_StatusTypeDef HAL_EXTI_GetConfigLine(EXTI_HandleTypeDef *hexti, EXTI_ConfigTypeDef *pExtiConfig
 239:Drivers/STM32F4xx_HAL_Driver/Src/stm32f4xx_hal_exti.c **** {
 351              		.loc 1 239 1 is_stmt 1 view -0
 352              		.cfi_startproc
 353              		@ args = 0, pretend = 0, frame = 0
ARM GAS  /tmp/ccWw4OVT.s 			page 12


 354              		@ frame_needed = 0, uses_anonymous_args = 0
 240:Drivers/STM32F4xx_HAL_Driver/Src/stm32f4xx_hal_exti.c ****   uint32_t regval;
 355              		.loc 1 240 3 view .LVU90
 241:Drivers/STM32F4xx_HAL_Driver/Src/stm32f4xx_hal_exti.c ****   uint32_t linepos;
 356              		.loc 1 241 3 view .LVU91
 242:Drivers/STM32F4xx_HAL_Driver/Src/stm32f4xx_hal_exti.c ****   uint32_t maskline;
 357              		.loc 1 242 3 view .LVU92
 243:Drivers/STM32F4xx_HAL_Driver/Src/stm32f4xx_hal_exti.c **** 
 244:Drivers/STM32F4xx_HAL_Driver/Src/stm32f4xx_hal_exti.c ****   /* Check null pointer */
 245:Drivers/STM32F4xx_HAL_Driver/Src/stm32f4xx_hal_exti.c ****   if ((hexti == NULL) || (pExtiConfig == NULL))
 358              		.loc 1 245 3 view .LVU93
 359              		.loc 1 245 6 is_stmt 0 view .LVU94
 360 0000 0028     		cmp	r0, #0
 361 0002 6AD0     		beq	.L45
 239:Drivers/STM32F4xx_HAL_Driver/Src/stm32f4xx_hal_exti.c ****   uint32_t regval;
 362              		.loc 1 239 1 discriminator 1 view .LVU95
 363 0004 38B5     		push	{r3, r4, r5, lr}
 364              	.LCFI3:
 365              		.cfi_def_cfa_offset 16
 366              		.cfi_offset 3, -16
 367              		.cfi_offset 4, -12
 368              		.cfi_offset 5, -8
 369              		.cfi_offset 14, -4
 370 0006 0C46     		mov	r4, r1
 371 0008 0546     		mov	r5, r0
 372              		.loc 1 245 23 discriminator 1 view .LVU96
 373 000a 0029     		cmp	r1, #0
 374 000c 67D0     		beq	.L46
 246:Drivers/STM32F4xx_HAL_Driver/Src/stm32f4xx_hal_exti.c ****   {
 247:Drivers/STM32F4xx_HAL_Driver/Src/stm32f4xx_hal_exti.c ****     return HAL_ERROR;
 248:Drivers/STM32F4xx_HAL_Driver/Src/stm32f4xx_hal_exti.c ****   }
 249:Drivers/STM32F4xx_HAL_Driver/Src/stm32f4xx_hal_exti.c **** 
 250:Drivers/STM32F4xx_HAL_Driver/Src/stm32f4xx_hal_exti.c ****   /* Check the parameter */
 251:Drivers/STM32F4xx_HAL_Driver/Src/stm32f4xx_hal_exti.c ****   assert_param(IS_EXTI_LINE(hexti->Line));
 375              		.loc 1 251 3 is_stmt 1 view .LVU97
 376 000e 0268     		ldr	r2, [r0]
 377 0010 22F0C063 		bic	r3, r2, #100663296
 378 0014 23F01F03 		bic	r3, r3, #31
 379 0018 3BB9     		cbnz	r3, .L33
 380              		.loc 1 251 3 is_stmt 0 discriminator 2 view .LVU98
 381 001a 02F0C063 		and	r3, r2, #100663296
 382 001e B3F1007F 		cmp	r3, #33554432
 383 0022 33D0     		beq	.L34
 384              		.loc 1 251 3 discriminator 3 view .LVU99
 385 0024 B3F1C06F 		cmp	r3, #100663296
 386 0028 30D0     		beq	.L34
 387              	.L33:
 388              		.loc 1 251 3 discriminator 7 view .LVU100
 389 002a FB21     		movs	r1, #251
 390              	.LVL28:
 391              		.loc 1 251 3 discriminator 7 view .LVU101
 392 002c 2D48     		ldr	r0, .L53
 393              	.LVL29:
 394              		.loc 1 251 3 discriminator 7 view .LVU102
 395 002e FFF7FEFF 		bl	assert_failed
 396              	.LVL30:
 397              	.L35:
ARM GAS  /tmp/ccWw4OVT.s 			page 13


 252:Drivers/STM32F4xx_HAL_Driver/Src/stm32f4xx_hal_exti.c **** 
 253:Drivers/STM32F4xx_HAL_Driver/Src/stm32f4xx_hal_exti.c ****   /* Store handle line number to configuration structure */
 254:Drivers/STM32F4xx_HAL_Driver/Src/stm32f4xx_hal_exti.c ****   pExtiConfig->Line = hexti->Line;
 398              		.loc 1 254 3 is_stmt 1 view .LVU103
 399              		.loc 1 254 28 is_stmt 0 view .LVU104
 400 0032 2968     		ldr	r1, [r5]
 401              		.loc 1 254 21 view .LVU105
 402 0034 2160     		str	r1, [r4]
 255:Drivers/STM32F4xx_HAL_Driver/Src/stm32f4xx_hal_exti.c **** 
 256:Drivers/STM32F4xx_HAL_Driver/Src/stm32f4xx_hal_exti.c ****   /* Compute line mask */
 257:Drivers/STM32F4xx_HAL_Driver/Src/stm32f4xx_hal_exti.c ****   linepos = (pExtiConfig->Line & EXTI_PIN_MASK);
 403              		.loc 1 257 3 is_stmt 1 view .LVU106
 404              		.loc 1 257 11 is_stmt 0 view .LVU107
 405 0036 01F01F05 		and	r5, r1, #31
 406              	.LVL31:
 258:Drivers/STM32F4xx_HAL_Driver/Src/stm32f4xx_hal_exti.c ****   maskline = (1uL << linepos);
 407              		.loc 1 258 3 is_stmt 1 view .LVU108
 408              		.loc 1 258 12 is_stmt 0 view .LVU109
 409 003a 0123     		movs	r3, #1
 410 003c AB40     		lsls	r3, r3, r5
 411              	.LVL32:
 259:Drivers/STM32F4xx_HAL_Driver/Src/stm32f4xx_hal_exti.c **** 
 260:Drivers/STM32F4xx_HAL_Driver/Src/stm32f4xx_hal_exti.c ****   /* 1] Get core mode : interrupt */
 261:Drivers/STM32F4xx_HAL_Driver/Src/stm32f4xx_hal_exti.c **** 
 262:Drivers/STM32F4xx_HAL_Driver/Src/stm32f4xx_hal_exti.c ****   /* Check if selected line is enable */
 263:Drivers/STM32F4xx_HAL_Driver/Src/stm32f4xx_hal_exti.c ****   if ((EXTI->IMR & maskline) != 0x00u)
 412              		.loc 1 263 3 is_stmt 1 view .LVU110
 413              		.loc 1 263 12 is_stmt 0 view .LVU111
 414 003e 2A4A     		ldr	r2, .L53+4
 415 0040 1268     		ldr	r2, [r2]
 416              		.loc 1 263 6 view .LVU112
 417 0042 1A42     		tst	r2, r3
 418 0044 27D0     		beq	.L36
 264:Drivers/STM32F4xx_HAL_Driver/Src/stm32f4xx_hal_exti.c ****   {
 265:Drivers/STM32F4xx_HAL_Driver/Src/stm32f4xx_hal_exti.c ****     pExtiConfig->Mode = EXTI_MODE_INTERRUPT;
 419              		.loc 1 265 5 is_stmt 1 view .LVU113
 420              		.loc 1 265 23 is_stmt 0 view .LVU114
 421 0046 0122     		movs	r2, #1
 422 0048 6260     		str	r2, [r4, #4]
 423              	.L37:
 266:Drivers/STM32F4xx_HAL_Driver/Src/stm32f4xx_hal_exti.c ****   }
 267:Drivers/STM32F4xx_HAL_Driver/Src/stm32f4xx_hal_exti.c ****   else
 268:Drivers/STM32F4xx_HAL_Driver/Src/stm32f4xx_hal_exti.c ****   {
 269:Drivers/STM32F4xx_HAL_Driver/Src/stm32f4xx_hal_exti.c ****     pExtiConfig->Mode = EXTI_MODE_NONE;
 270:Drivers/STM32F4xx_HAL_Driver/Src/stm32f4xx_hal_exti.c ****   }
 271:Drivers/STM32F4xx_HAL_Driver/Src/stm32f4xx_hal_exti.c **** 
 272:Drivers/STM32F4xx_HAL_Driver/Src/stm32f4xx_hal_exti.c ****   /* Get event mode */
 273:Drivers/STM32F4xx_HAL_Driver/Src/stm32f4xx_hal_exti.c ****   /* Check if selected line is enable */
 274:Drivers/STM32F4xx_HAL_Driver/Src/stm32f4xx_hal_exti.c ****   if ((EXTI->EMR & maskline) != 0x00u)
 424              		.loc 1 274 3 is_stmt 1 view .LVU115
 425              		.loc 1 274 12 is_stmt 0 view .LVU116
 426 004a 274A     		ldr	r2, .L53+4
 427 004c 5268     		ldr	r2, [r2, #4]
 428              		.loc 1 274 6 view .LVU117
 429 004e 1A42     		tst	r2, r3
 430 0050 03D0     		beq	.L38
 275:Drivers/STM32F4xx_HAL_Driver/Src/stm32f4xx_hal_exti.c ****   {
ARM GAS  /tmp/ccWw4OVT.s 			page 14


 276:Drivers/STM32F4xx_HAL_Driver/Src/stm32f4xx_hal_exti.c ****     pExtiConfig->Mode |= EXTI_MODE_EVENT;
 431              		.loc 1 276 5 is_stmt 1 view .LVU118
 432              		.loc 1 276 23 is_stmt 0 view .LVU119
 433 0052 6268     		ldr	r2, [r4, #4]
 434 0054 42F00202 		orr	r2, r2, #2
 435 0058 6260     		str	r2, [r4, #4]
 436              	.L38:
 277:Drivers/STM32F4xx_HAL_Driver/Src/stm32f4xx_hal_exti.c ****   }
 278:Drivers/STM32F4xx_HAL_Driver/Src/stm32f4xx_hal_exti.c **** 
 279:Drivers/STM32F4xx_HAL_Driver/Src/stm32f4xx_hal_exti.c ****   /* 2] Get trigger for configurable lines : rising */
 280:Drivers/STM32F4xx_HAL_Driver/Src/stm32f4xx_hal_exti.c ****   if ((pExtiConfig->Line & EXTI_CONFIG) != 0x00u)
 437              		.loc 1 280 3 is_stmt 1 view .LVU120
 438              		.loc 1 280 6 is_stmt 0 view .LVU121
 439 005a 11F0007F 		tst	r1, #33554432
 440 005e 38D0     		beq	.L39
 281:Drivers/STM32F4xx_HAL_Driver/Src/stm32f4xx_hal_exti.c ****   {
 282:Drivers/STM32F4xx_HAL_Driver/Src/stm32f4xx_hal_exti.c ****     /* Check if configuration of selected line is enable */
 283:Drivers/STM32F4xx_HAL_Driver/Src/stm32f4xx_hal_exti.c ****     if ((EXTI->RTSR & maskline) != 0x00u)
 441              		.loc 1 283 5 is_stmt 1 view .LVU122
 442              		.loc 1 283 14 is_stmt 0 view .LVU123
 443 0060 214A     		ldr	r2, .L53+4
 444 0062 9268     		ldr	r2, [r2, #8]
 445              		.loc 1 283 8 view .LVU124
 446 0064 1A42     		tst	r2, r3
 447 0066 19D0     		beq	.L40
 284:Drivers/STM32F4xx_HAL_Driver/Src/stm32f4xx_hal_exti.c ****     {
 285:Drivers/STM32F4xx_HAL_Driver/Src/stm32f4xx_hal_exti.c ****       pExtiConfig->Trigger = EXTI_TRIGGER_RISING;
 448              		.loc 1 285 7 is_stmt 1 view .LVU125
 449              		.loc 1 285 28 is_stmt 0 view .LVU126
 450 0068 0122     		movs	r2, #1
 451 006a A260     		str	r2, [r4, #8]
 452              	.L41:
 286:Drivers/STM32F4xx_HAL_Driver/Src/stm32f4xx_hal_exti.c ****     }
 287:Drivers/STM32F4xx_HAL_Driver/Src/stm32f4xx_hal_exti.c ****     else
 288:Drivers/STM32F4xx_HAL_Driver/Src/stm32f4xx_hal_exti.c ****     {
 289:Drivers/STM32F4xx_HAL_Driver/Src/stm32f4xx_hal_exti.c ****       pExtiConfig->Trigger = EXTI_TRIGGER_NONE;
 290:Drivers/STM32F4xx_HAL_Driver/Src/stm32f4xx_hal_exti.c ****     }
 291:Drivers/STM32F4xx_HAL_Driver/Src/stm32f4xx_hal_exti.c **** 
 292:Drivers/STM32F4xx_HAL_Driver/Src/stm32f4xx_hal_exti.c ****     /* Get falling configuration */
 293:Drivers/STM32F4xx_HAL_Driver/Src/stm32f4xx_hal_exti.c ****     /* Check if configuration of selected line is enable */
 294:Drivers/STM32F4xx_HAL_Driver/Src/stm32f4xx_hal_exti.c ****     if ((EXTI->FTSR & maskline) != 0x00u)
 453              		.loc 1 294 5 is_stmt 1 view .LVU127
 454              		.loc 1 294 14 is_stmt 0 view .LVU128
 455 006c 1E4A     		ldr	r2, .L53+4
 456 006e D268     		ldr	r2, [r2, #12]
 457              		.loc 1 294 8 view .LVU129
 458 0070 1A42     		tst	r2, r3
 459 0072 03D0     		beq	.L42
 295:Drivers/STM32F4xx_HAL_Driver/Src/stm32f4xx_hal_exti.c ****     {
 296:Drivers/STM32F4xx_HAL_Driver/Src/stm32f4xx_hal_exti.c ****       pExtiConfig->Trigger |= EXTI_TRIGGER_FALLING;
 460              		.loc 1 296 7 is_stmt 1 view .LVU130
 461              		.loc 1 296 28 is_stmt 0 view .LVU131
 462 0074 A368     		ldr	r3, [r4, #8]
 463              	.LVL33:
 464              		.loc 1 296 28 view .LVU132
 465 0076 43F00203 		orr	r3, r3, #2
 466 007a A360     		str	r3, [r4, #8]
ARM GAS  /tmp/ccWw4OVT.s 			page 15


 467              	.L42:
 297:Drivers/STM32F4xx_HAL_Driver/Src/stm32f4xx_hal_exti.c ****     }
 298:Drivers/STM32F4xx_HAL_Driver/Src/stm32f4xx_hal_exti.c **** 
 299:Drivers/STM32F4xx_HAL_Driver/Src/stm32f4xx_hal_exti.c ****     /* Get Gpio port selection for gpio lines */
 300:Drivers/STM32F4xx_HAL_Driver/Src/stm32f4xx_hal_exti.c ****     if ((pExtiConfig->Line & EXTI_GPIO) == EXTI_GPIO)
 468              		.loc 1 300 5 is_stmt 1 view .LVU133
 469              		.loc 1 300 28 is_stmt 0 view .LVU134
 470 007c 01F0C063 		and	r3, r1, #100663296
 471              		.loc 1 300 8 view .LVU135
 472 0080 B3F1C06F 		cmp	r3, #100663296
 473 0084 0DD0     		beq	.L51
 301:Drivers/STM32F4xx_HAL_Driver/Src/stm32f4xx_hal_exti.c ****     {
 302:Drivers/STM32F4xx_HAL_Driver/Src/stm32f4xx_hal_exti.c ****       assert_param(IS_EXTI_GPIO_PIN(linepos));
 303:Drivers/STM32F4xx_HAL_Driver/Src/stm32f4xx_hal_exti.c **** 
 304:Drivers/STM32F4xx_HAL_Driver/Src/stm32f4xx_hal_exti.c ****       regval = SYSCFG->EXTICR[linepos >> 2u];
 305:Drivers/STM32F4xx_HAL_Driver/Src/stm32f4xx_hal_exti.c ****       pExtiConfig->GPIOSel = ((regval << (SYSCFG_EXTICR1_EXTI1_Pos * (3uL - (linepos & 0x03u)))) >>
 306:Drivers/STM32F4xx_HAL_Driver/Src/stm32f4xx_hal_exti.c ****     }
 307:Drivers/STM32F4xx_HAL_Driver/Src/stm32f4xx_hal_exti.c ****     else
 308:Drivers/STM32F4xx_HAL_Driver/Src/stm32f4xx_hal_exti.c ****     {
 309:Drivers/STM32F4xx_HAL_Driver/Src/stm32f4xx_hal_exti.c ****       pExtiConfig->GPIOSel = 0x00u;
 474              		.loc 1 309 7 is_stmt 1 view .LVU136
 475              		.loc 1 309 28 is_stmt 0 view .LVU137
 476 0086 0020     		movs	r0, #0
 477 0088 E060     		str	r0, [r4, #12]
 478 008a 25E0     		b	.L32
 479              	.LVL34:
 480              	.L34:
 251:Drivers/STM32F4xx_HAL_Driver/Src/stm32f4xx_hal_exti.c **** 
 481              		.loc 1 251 3 discriminator 6 view .LVU138
 482 008c 02F01F02 		and	r2, r2, #31
 483 0090 162A     		cmp	r2, #22
 484 0092 CED9     		bls	.L35
 485 0094 C9E7     		b	.L33
 486              	.LVL35:
 487              	.L36:
 269:Drivers/STM32F4xx_HAL_Driver/Src/stm32f4xx_hal_exti.c ****   }
 488              		.loc 1 269 5 is_stmt 1 view .LVU139
 269:Drivers/STM32F4xx_HAL_Driver/Src/stm32f4xx_hal_exti.c ****   }
 489              		.loc 1 269 23 is_stmt 0 view .LVU140
 490 0096 0022     		movs	r2, #0
 491 0098 6260     		str	r2, [r4, #4]
 492 009a D6E7     		b	.L37
 493              	.L40:
 289:Drivers/STM32F4xx_HAL_Driver/Src/stm32f4xx_hal_exti.c ****     }
 494              		.loc 1 289 7 is_stmt 1 view .LVU141
 289:Drivers/STM32F4xx_HAL_Driver/Src/stm32f4xx_hal_exti.c ****     }
 495              		.loc 1 289 28 is_stmt 0 view .LVU142
 496 009c 0022     		movs	r2, #0
 497 009e A260     		str	r2, [r4, #8]
 498 00a0 E4E7     		b	.L41
 499              	.LVL36:
 500              	.L51:
 302:Drivers/STM32F4xx_HAL_Driver/Src/stm32f4xx_hal_exti.c **** 
 501              		.loc 1 302 7 is_stmt 1 view .LVU143
 502 00a2 11F0100F 		tst	r1, #16
 503 00a6 0ED1     		bne	.L52
 504              	.L44:
ARM GAS  /tmp/ccWw4OVT.s 			page 16


 304:Drivers/STM32F4xx_HAL_Driver/Src/stm32f4xx_hal_exti.c ****       pExtiConfig->GPIOSel = ((regval << (SYSCFG_EXTICR1_EXTI1_Pos * (3uL - (linepos & 0x03u)))) >>
 505              		.loc 1 304 7 view .LVU144
 304:Drivers/STM32F4xx_HAL_Driver/Src/stm32f4xx_hal_exti.c ****       pExtiConfig->GPIOSel = ((regval << (SYSCFG_EXTICR1_EXTI1_Pos * (3uL - (linepos & 0x03u)))) >>
 506              		.loc 1 304 39 is_stmt 0 view .LVU145
 507 00a8 AB08     		lsrs	r3, r5, #2
 304:Drivers/STM32F4xx_HAL_Driver/Src/stm32f4xx_hal_exti.c ****       pExtiConfig->GPIOSel = ((regval << (SYSCFG_EXTICR1_EXTI1_Pos * (3uL - (linepos & 0x03u)))) >>
 508              		.loc 1 304 14 view .LVU146
 509 00aa 0233     		adds	r3, r3, #2
 510 00ac 0F4A     		ldr	r2, .L53+8
 511 00ae 52F82330 		ldr	r3, [r2, r3, lsl #2]
 512              	.LVL37:
 305:Drivers/STM32F4xx_HAL_Driver/Src/stm32f4xx_hal_exti.c ****     }
 513              		.loc 1 305 7 is_stmt 1 view .LVU147
 305:Drivers/STM32F4xx_HAL_Driver/Src/stm32f4xx_hal_exti.c ****     }
 514              		.loc 1 305 75 is_stmt 0 view .LVU148
 515 00b2 ED43     		mvns	r5, r5
 516              	.LVL38:
 305:Drivers/STM32F4xx_HAL_Driver/Src/stm32f4xx_hal_exti.c ****     }
 517              		.loc 1 305 75 view .LVU149
 518 00b4 05F00305 		and	r5, r5, #3
 519              	.LVL39:
 305:Drivers/STM32F4xx_HAL_Driver/Src/stm32f4xx_hal_exti.c ****     }
 520              		.loc 1 305 68 view .LVU150
 521 00b8 AD00     		lsls	r5, r5, #2
 305:Drivers/STM32F4xx_HAL_Driver/Src/stm32f4xx_hal_exti.c ****     }
 522              		.loc 1 305 39 view .LVU151
 523 00ba 03FA05F5 		lsl	r5, r3, r5
 305:Drivers/STM32F4xx_HAL_Driver/Src/stm32f4xx_hal_exti.c ****     }
 524              		.loc 1 305 98 view .LVU152
 525 00be 2D0E     		lsrs	r5, r5, #24
 305:Drivers/STM32F4xx_HAL_Driver/Src/stm32f4xx_hal_exti.c ****     }
 526              		.loc 1 305 28 view .LVU153
 527 00c0 E560     		str	r5, [r4, #12]
 310:Drivers/STM32F4xx_HAL_Driver/Src/stm32f4xx_hal_exti.c ****     }
 311:Drivers/STM32F4xx_HAL_Driver/Src/stm32f4xx_hal_exti.c ****   }
 312:Drivers/STM32F4xx_HAL_Driver/Src/stm32f4xx_hal_exti.c ****   else
 313:Drivers/STM32F4xx_HAL_Driver/Src/stm32f4xx_hal_exti.c ****   {
 314:Drivers/STM32F4xx_HAL_Driver/Src/stm32f4xx_hal_exti.c ****     /* No Trigger selected */
 315:Drivers/STM32F4xx_HAL_Driver/Src/stm32f4xx_hal_exti.c ****     pExtiConfig->Trigger = EXTI_TRIGGER_NONE;
 316:Drivers/STM32F4xx_HAL_Driver/Src/stm32f4xx_hal_exti.c ****     pExtiConfig->GPIOSel = 0x00u;
 317:Drivers/STM32F4xx_HAL_Driver/Src/stm32f4xx_hal_exti.c ****   }
 318:Drivers/STM32F4xx_HAL_Driver/Src/stm32f4xx_hal_exti.c **** 
 319:Drivers/STM32F4xx_HAL_Driver/Src/stm32f4xx_hal_exti.c ****   return HAL_OK;
 528              		.loc 1 319 10 view .LVU154
 529 00c2 0020     		movs	r0, #0
 530 00c4 08E0     		b	.L32
 531              	.LVL40:
 532              	.L52:
 302:Drivers/STM32F4xx_HAL_Driver/Src/stm32f4xx_hal_exti.c **** 
 533              		.loc 1 302 7 discriminator 1 view .LVU155
 534 00c6 4FF49771 		mov	r1, #302
 535 00ca 0648     		ldr	r0, .L53
 536 00cc FFF7FEFF 		bl	assert_failed
 537              	.LVL41:
 538 00d0 EAE7     		b	.L44
 539              	.LVL42:
 540              	.L39:
ARM GAS  /tmp/ccWw4OVT.s 			page 17


 315:Drivers/STM32F4xx_HAL_Driver/Src/stm32f4xx_hal_exti.c ****     pExtiConfig->GPIOSel = 0x00u;
 541              		.loc 1 315 5 is_stmt 1 view .LVU156
 315:Drivers/STM32F4xx_HAL_Driver/Src/stm32f4xx_hal_exti.c ****     pExtiConfig->GPIOSel = 0x00u;
 542              		.loc 1 315 26 is_stmt 0 view .LVU157
 543 00d2 0020     		movs	r0, #0
 544 00d4 A060     		str	r0, [r4, #8]
 316:Drivers/STM32F4xx_HAL_Driver/Src/stm32f4xx_hal_exti.c ****   }
 545              		.loc 1 316 5 is_stmt 1 view .LVU158
 316:Drivers/STM32F4xx_HAL_Driver/Src/stm32f4xx_hal_exti.c ****   }
 546              		.loc 1 316 26 is_stmt 0 view .LVU159
 547 00d6 E060     		str	r0, [r4, #12]
 548              	.LVL43:
 549              	.L32:
 320:Drivers/STM32F4xx_HAL_Driver/Src/stm32f4xx_hal_exti.c **** }
 550              		.loc 1 320 1 view .LVU160
 551 00d8 38BD     		pop	{r3, r4, r5, pc}
 552              	.LVL44:
 553              	.L45:
 554              	.LCFI4:
 555              		.cfi_def_cfa_offset 0
 556              		.cfi_restore 3
 557              		.cfi_restore 4
 558              		.cfi_restore 5
 559              		.cfi_restore 14
 247:Drivers/STM32F4xx_HAL_Driver/Src/stm32f4xx_hal_exti.c ****   }
 560              		.loc 1 247 12 view .LVU161
 561 00da 0120     		movs	r0, #1
 562              	.LVL45:
 563              		.loc 1 320 1 view .LVU162
 564 00dc 7047     		bx	lr
 565              	.LVL46:
 566              	.L46:
 567              	.LCFI5:
 568              		.cfi_def_cfa_offset 16
 569              		.cfi_offset 3, -16
 570              		.cfi_offset 4, -12
 571              		.cfi_offset 5, -8
 572              		.cfi_offset 14, -4
 247:Drivers/STM32F4xx_HAL_Driver/Src/stm32f4xx_hal_exti.c ****   }
 573              		.loc 1 247 12 view .LVU163
 574 00de 0120     		movs	r0, #1
 575              	.LVL47:
 247:Drivers/STM32F4xx_HAL_Driver/Src/stm32f4xx_hal_exti.c ****   }
 576              		.loc 1 247 12 view .LVU164
 577 00e0 FAE7     		b	.L32
 578              	.L54:
 579 00e2 00BF     		.align	2
 580              	.L53:
 581 00e4 00000000 		.word	.LC0
 582 00e8 003C0140 		.word	1073822720
 583 00ec 00380140 		.word	1073821696
 584              		.cfi_endproc
 585              	.LFE131:
 587              		.section	.text.HAL_EXTI_ClearConfigLine,"ax",%progbits
 588              		.align	1
 589              		.global	HAL_EXTI_ClearConfigLine
 590              		.syntax unified
ARM GAS  /tmp/ccWw4OVT.s 			page 18


 591              		.thumb
 592              		.thumb_func
 593              		.fpu fpv4-sp-d16
 595              	HAL_EXTI_ClearConfigLine:
 596              	.LVL48:
 597              	.LFB132:
 321:Drivers/STM32F4xx_HAL_Driver/Src/stm32f4xx_hal_exti.c **** 
 322:Drivers/STM32F4xx_HAL_Driver/Src/stm32f4xx_hal_exti.c **** /**
 323:Drivers/STM32F4xx_HAL_Driver/Src/stm32f4xx_hal_exti.c ****   * @brief  Clear whole configuration of a dedicated Exti line.
 324:Drivers/STM32F4xx_HAL_Driver/Src/stm32f4xx_hal_exti.c ****   * @param  hexti Exti handle.
 325:Drivers/STM32F4xx_HAL_Driver/Src/stm32f4xx_hal_exti.c ****   * @retval HAL Status.
 326:Drivers/STM32F4xx_HAL_Driver/Src/stm32f4xx_hal_exti.c ****   */
 327:Drivers/STM32F4xx_HAL_Driver/Src/stm32f4xx_hal_exti.c **** HAL_StatusTypeDef HAL_EXTI_ClearConfigLine(EXTI_HandleTypeDef *hexti)
 328:Drivers/STM32F4xx_HAL_Driver/Src/stm32f4xx_hal_exti.c **** {
 598              		.loc 1 328 1 is_stmt 1 view -0
 599              		.cfi_startproc
 600              		@ args = 0, pretend = 0, frame = 0
 601              		@ frame_needed = 0, uses_anonymous_args = 0
 329:Drivers/STM32F4xx_HAL_Driver/Src/stm32f4xx_hal_exti.c ****   uint32_t regval;
 602              		.loc 1 329 3 view .LVU166
 330:Drivers/STM32F4xx_HAL_Driver/Src/stm32f4xx_hal_exti.c ****   uint32_t linepos;
 603              		.loc 1 330 3 view .LVU167
 331:Drivers/STM32F4xx_HAL_Driver/Src/stm32f4xx_hal_exti.c ****   uint32_t maskline;
 604              		.loc 1 331 3 view .LVU168
 332:Drivers/STM32F4xx_HAL_Driver/Src/stm32f4xx_hal_exti.c **** 
 333:Drivers/STM32F4xx_HAL_Driver/Src/stm32f4xx_hal_exti.c ****   /* Check null pointer */
 334:Drivers/STM32F4xx_HAL_Driver/Src/stm32f4xx_hal_exti.c ****   if (hexti == NULL)
 605              		.loc 1 334 3 view .LVU169
 606              		.loc 1 334 6 is_stmt 0 view .LVU170
 607 0000 0028     		cmp	r0, #0
 608 0002 55D0     		beq	.L61
 328:Drivers/STM32F4xx_HAL_Driver/Src/stm32f4xx_hal_exti.c ****   uint32_t regval;
 609              		.loc 1 328 1 view .LVU171
 610 0004 70B5     		push	{r4, r5, r6, lr}
 611              	.LCFI6:
 612              		.cfi_def_cfa_offset 16
 613              		.cfi_offset 4, -16
 614              		.cfi_offset 5, -12
 615              		.cfi_offset 6, -8
 616              		.cfi_offset 14, -4
 617 0006 0446     		mov	r4, r0
 335:Drivers/STM32F4xx_HAL_Driver/Src/stm32f4xx_hal_exti.c ****   {
 336:Drivers/STM32F4xx_HAL_Driver/Src/stm32f4xx_hal_exti.c ****     return HAL_ERROR;
 337:Drivers/STM32F4xx_HAL_Driver/Src/stm32f4xx_hal_exti.c ****   }
 338:Drivers/STM32F4xx_HAL_Driver/Src/stm32f4xx_hal_exti.c **** 
 339:Drivers/STM32F4xx_HAL_Driver/Src/stm32f4xx_hal_exti.c ****   /* Check the parameter */
 340:Drivers/STM32F4xx_HAL_Driver/Src/stm32f4xx_hal_exti.c ****   assert_param(IS_EXTI_LINE(hexti->Line));
 618              		.loc 1 340 3 is_stmt 1 view .LVU172
 619 0008 0268     		ldr	r2, [r0]
 620 000a 22F0C063 		bic	r3, r2, #100663296
 621 000e 23F01F03 		bic	r3, r3, #31
 622 0012 3BB9     		cbnz	r3, .L57
 623              		.loc 1 340 3 is_stmt 0 discriminator 2 view .LVU173
 624 0014 02F0C063 		and	r3, r2, #100663296
 625 0018 B3F1007F 		cmp	r3, #33554432
 626 001c 29D0     		beq	.L58
 627              		.loc 1 340 3 discriminator 3 view .LVU174
ARM GAS  /tmp/ccWw4OVT.s 			page 19


 628 001e B3F1C06F 		cmp	r3, #100663296
 629 0022 26D0     		beq	.L58
 630              	.L57:
 631              		.loc 1 340 3 discriminator 7 view .LVU175
 632 0024 4FF4AA71 		mov	r1, #340
 633 0028 2348     		ldr	r0, .L70
 634              	.LVL49:
 635              		.loc 1 340 3 discriminator 7 view .LVU176
 636 002a FFF7FEFF 		bl	assert_failed
 637              	.LVL50:
 638              	.L59:
 341:Drivers/STM32F4xx_HAL_Driver/Src/stm32f4xx_hal_exti.c **** 
 342:Drivers/STM32F4xx_HAL_Driver/Src/stm32f4xx_hal_exti.c ****   /* compute line mask */
 343:Drivers/STM32F4xx_HAL_Driver/Src/stm32f4xx_hal_exti.c ****   linepos = (hexti->Line & EXTI_PIN_MASK);
 639              		.loc 1 343 3 is_stmt 1 view .LVU177
 640              		.loc 1 343 19 is_stmt 0 view .LVU178
 641 002e 2668     		ldr	r6, [r4]
 642              		.loc 1 343 11 view .LVU179
 643 0030 06F01F05 		and	r5, r6, #31
 644              	.LVL51:
 344:Drivers/STM32F4xx_HAL_Driver/Src/stm32f4xx_hal_exti.c ****   maskline = (1uL << linepos);
 645              		.loc 1 344 3 is_stmt 1 view .LVU180
 646              		.loc 1 344 12 is_stmt 0 view .LVU181
 647 0034 0123     		movs	r3, #1
 648 0036 AB40     		lsls	r3, r3, r5
 649              	.LVL52:
 345:Drivers/STM32F4xx_HAL_Driver/Src/stm32f4xx_hal_exti.c **** 
 346:Drivers/STM32F4xx_HAL_Driver/Src/stm32f4xx_hal_exti.c ****   /* 1] Clear interrupt mode */
 347:Drivers/STM32F4xx_HAL_Driver/Src/stm32f4xx_hal_exti.c ****   EXTI->IMR = (EXTI->IMR & ~maskline);
 650              		.loc 1 347 3 is_stmt 1 view .LVU182
 651              		.loc 1 347 20 is_stmt 0 view .LVU183
 652 0038 204A     		ldr	r2, .L70+4
 653 003a 1168     		ldr	r1, [r2]
 654              		.loc 1 347 28 view .LVU184
 655 003c D843     		mvns	r0, r3
 656              		.loc 1 347 26 view .LVU185
 657 003e 21EA0301 		bic	r1, r1, r3
 658              		.loc 1 347 13 view .LVU186
 659 0042 1160     		str	r1, [r2]
 348:Drivers/STM32F4xx_HAL_Driver/Src/stm32f4xx_hal_exti.c **** 
 349:Drivers/STM32F4xx_HAL_Driver/Src/stm32f4xx_hal_exti.c ****   /* 2] Clear event mode */
 350:Drivers/STM32F4xx_HAL_Driver/Src/stm32f4xx_hal_exti.c ****   EXTI->EMR = (EXTI->EMR & ~maskline);
 660              		.loc 1 350 3 is_stmt 1 view .LVU187
 661              		.loc 1 350 20 is_stmt 0 view .LVU188
 662 0044 5168     		ldr	r1, [r2, #4]
 663              		.loc 1 350 26 view .LVU189
 664 0046 21EA0303 		bic	r3, r1, r3
 665              	.LVL53:
 666              		.loc 1 350 13 view .LVU190
 667 004a 5360     		str	r3, [r2, #4]
 351:Drivers/STM32F4xx_HAL_Driver/Src/stm32f4xx_hal_exti.c **** 
 352:Drivers/STM32F4xx_HAL_Driver/Src/stm32f4xx_hal_exti.c ****   /* 3] Clear triggers in case of configurable lines */
 353:Drivers/STM32F4xx_HAL_Driver/Src/stm32f4xx_hal_exti.c ****   if ((hexti->Line & EXTI_CONFIG) != 0x00u)
 668              		.loc 1 353 3 is_stmt 1 view .LVU191
 669              		.loc 1 353 13 is_stmt 0 view .LVU192
 670 004c 2368     		ldr	r3, [r4]
 671              		.loc 1 353 6 view .LVU193
ARM GAS  /tmp/ccWw4OVT.s 			page 20


 672 004e 13F0007F 		tst	r3, #33554432
 673 0052 2FD0     		beq	.L62
 354:Drivers/STM32F4xx_HAL_Driver/Src/stm32f4xx_hal_exti.c ****   {
 355:Drivers/STM32F4xx_HAL_Driver/Src/stm32f4xx_hal_exti.c ****     EXTI->RTSR = (EXTI->RTSR & ~maskline);
 674              		.loc 1 355 5 is_stmt 1 view .LVU194
 675              		.loc 1 355 23 is_stmt 0 view .LVU195
 676 0054 1346     		mov	r3, r2
 677 0056 9268     		ldr	r2, [r2, #8]
 678              		.loc 1 355 30 view .LVU196
 679 0058 0240     		ands	r2, r2, r0
 680              		.loc 1 355 16 view .LVU197
 681 005a 9A60     		str	r2, [r3, #8]
 356:Drivers/STM32F4xx_HAL_Driver/Src/stm32f4xx_hal_exti.c ****     EXTI->FTSR = (EXTI->FTSR & ~maskline);
 682              		.loc 1 356 5 is_stmt 1 view .LVU198
 683              		.loc 1 356 23 is_stmt 0 view .LVU199
 684 005c DA68     		ldr	r2, [r3, #12]
 685              		.loc 1 356 30 view .LVU200
 686 005e 1040     		ands	r0, r0, r2
 687              	.LVL54:
 688              		.loc 1 356 16 view .LVU201
 689 0060 D860     		str	r0, [r3, #12]
 357:Drivers/STM32F4xx_HAL_Driver/Src/stm32f4xx_hal_exti.c **** 
 358:Drivers/STM32F4xx_HAL_Driver/Src/stm32f4xx_hal_exti.c ****     /* Get Gpio port selection for gpio lines */
 359:Drivers/STM32F4xx_HAL_Driver/Src/stm32f4xx_hal_exti.c ****     if ((hexti->Line & EXTI_GPIO) == EXTI_GPIO)
 690              		.loc 1 359 5 is_stmt 1 view .LVU202
 691              		.loc 1 359 15 is_stmt 0 view .LVU203
 692 0062 2368     		ldr	r3, [r4]
 693              		.loc 1 359 22 view .LVU204
 694 0064 03F0C063 		and	r3, r3, #100663296
 695              		.loc 1 359 8 view .LVU205
 696 0068 B3F1C06F 		cmp	r3, #100663296
 697 006c 06D0     		beq	.L68
 360:Drivers/STM32F4xx_HAL_Driver/Src/stm32f4xx_hal_exti.c ****     {
 361:Drivers/STM32F4xx_HAL_Driver/Src/stm32f4xx_hal_exti.c ****       assert_param(IS_EXTI_GPIO_PIN(linepos));
 362:Drivers/STM32F4xx_HAL_Driver/Src/stm32f4xx_hal_exti.c **** 
 363:Drivers/STM32F4xx_HAL_Driver/Src/stm32f4xx_hal_exti.c ****       regval = SYSCFG->EXTICR[linepos >> 2u];
 364:Drivers/STM32F4xx_HAL_Driver/Src/stm32f4xx_hal_exti.c ****       regval &= ~(SYSCFG_EXTICR1_EXTI0 << (SYSCFG_EXTICR1_EXTI1_Pos * (linepos & 0x03u)));
 365:Drivers/STM32F4xx_HAL_Driver/Src/stm32f4xx_hal_exti.c ****       SYSCFG->EXTICR[linepos >> 2u] = regval;
 366:Drivers/STM32F4xx_HAL_Driver/Src/stm32f4xx_hal_exti.c ****     }
 367:Drivers/STM32F4xx_HAL_Driver/Src/stm32f4xx_hal_exti.c ****   }
 368:Drivers/STM32F4xx_HAL_Driver/Src/stm32f4xx_hal_exti.c **** 
 369:Drivers/STM32F4xx_HAL_Driver/Src/stm32f4xx_hal_exti.c ****   return HAL_OK;
 698              		.loc 1 369 10 view .LVU206
 699 006e 0020     		movs	r0, #0
 700 0070 21E0     		b	.L56
 701              	.LVL55:
 702              	.L58:
 340:Drivers/STM32F4xx_HAL_Driver/Src/stm32f4xx_hal_exti.c **** 
 703              		.loc 1 340 3 discriminator 6 view .LVU207
 704 0072 02F01F02 		and	r2, r2, #31
 705 0076 162A     		cmp	r2, #22
 706 0078 D9D9     		bls	.L59
 707 007a D3E7     		b	.L57
 708              	.LVL56:
 709              	.L68:
 361:Drivers/STM32F4xx_HAL_Driver/Src/stm32f4xx_hal_exti.c **** 
 710              		.loc 1 361 7 is_stmt 1 view .LVU208
ARM GAS  /tmp/ccWw4OVT.s 			page 21


 711 007c 16F0100F 		tst	r6, #16
 712 0080 10D1     		bne	.L69
 713              	.L60:
 363:Drivers/STM32F4xx_HAL_Driver/Src/stm32f4xx_hal_exti.c ****       regval &= ~(SYSCFG_EXTICR1_EXTI0 << (SYSCFG_EXTICR1_EXTI1_Pos * (linepos & 0x03u)));
 714              		.loc 1 363 7 view .LVU209
 363:Drivers/STM32F4xx_HAL_Driver/Src/stm32f4xx_hal_exti.c ****       regval &= ~(SYSCFG_EXTICR1_EXTI0 << (SYSCFG_EXTICR1_EXTI1_Pos * (linepos & 0x03u)));
 715              		.loc 1 363 39 is_stmt 0 view .LVU210
 716 0082 AD08     		lsrs	r5, r5, #2
 717              	.LVL57:
 363:Drivers/STM32F4xx_HAL_Driver/Src/stm32f4xx_hal_exti.c ****       regval &= ~(SYSCFG_EXTICR1_EXTI0 << (SYSCFG_EXTICR1_EXTI1_Pos * (linepos & 0x03u)));
 718              		.loc 1 363 14 view .LVU211
 719 0084 0E49     		ldr	r1, .L70+8
 720 0086 0235     		adds	r5, r5, #2
 721 0088 51F82530 		ldr	r3, [r1, r5, lsl #2]
 722              	.LVL58:
 364:Drivers/STM32F4xx_HAL_Driver/Src/stm32f4xx_hal_exti.c ****       SYSCFG->EXTICR[linepos >> 2u] = regval;
 723              		.loc 1 364 7 is_stmt 1 view .LVU212
 364:Drivers/STM32F4xx_HAL_Driver/Src/stm32f4xx_hal_exti.c ****       SYSCFG->EXTICR[linepos >> 2u] = regval;
 724              		.loc 1 364 80 is_stmt 0 view .LVU213
 725 008c 06F00306 		and	r6, r6, #3
 726              	.LVL59:
 364:Drivers/STM32F4xx_HAL_Driver/Src/stm32f4xx_hal_exti.c ****       SYSCFG->EXTICR[linepos >> 2u] = regval;
 727              		.loc 1 364 69 view .LVU214
 728 0090 B600     		lsls	r6, r6, #2
 364:Drivers/STM32F4xx_HAL_Driver/Src/stm32f4xx_hal_exti.c ****       SYSCFG->EXTICR[linepos >> 2u] = regval;
 729              		.loc 1 364 40 view .LVU215
 730 0092 0F22     		movs	r2, #15
 731 0094 02FA06F6 		lsl	r6, r2, r6
 364:Drivers/STM32F4xx_HAL_Driver/Src/stm32f4xx_hal_exti.c ****       SYSCFG->EXTICR[linepos >> 2u] = regval;
 732              		.loc 1 364 14 view .LVU216
 733 0098 23EA0606 		bic	r6, r3, r6
 734              	.LVL60:
 365:Drivers/STM32F4xx_HAL_Driver/Src/stm32f4xx_hal_exti.c ****     }
 735              		.loc 1 365 7 is_stmt 1 view .LVU217
 365:Drivers/STM32F4xx_HAL_Driver/Src/stm32f4xx_hal_exti.c ****     }
 736              		.loc 1 365 37 is_stmt 0 view .LVU218
 737 009c 41F82560 		str	r6, [r1, r5, lsl #2]
 738              		.loc 1 369 10 view .LVU219
 739 00a0 0020     		movs	r0, #0
 740 00a2 08E0     		b	.L56
 741              	.LVL61:
 742              	.L69:
 361:Drivers/STM32F4xx_HAL_Driver/Src/stm32f4xx_hal_exti.c **** 
 743              		.loc 1 361 7 discriminator 1 view .LVU220
 744 00a4 40F26911 		movw	r1, #361
 745 00a8 0348     		ldr	r0, .L70
 746 00aa FFF7FEFF 		bl	assert_failed
 747              	.LVL62:
 748 00ae E8E7     		b	.L60
 749              	.LVL63:
 750              	.L61:
 751              	.LCFI7:
 752              		.cfi_def_cfa_offset 0
 753              		.cfi_restore 4
 754              		.cfi_restore 5
 755              		.cfi_restore 6
 756              		.cfi_restore 14
ARM GAS  /tmp/ccWw4OVT.s 			page 22


 336:Drivers/STM32F4xx_HAL_Driver/Src/stm32f4xx_hal_exti.c ****   }
 757              		.loc 1 336 12 view .LVU221
 758 00b0 0120     		movs	r0, #1
 759              	.LVL64:
 370:Drivers/STM32F4xx_HAL_Driver/Src/stm32f4xx_hal_exti.c **** }
 760              		.loc 1 370 1 view .LVU222
 761 00b2 7047     		bx	lr
 762              	.LVL65:
 763              	.L62:
 764              	.LCFI8:
 765              		.cfi_def_cfa_offset 16
 766              		.cfi_offset 4, -16
 767              		.cfi_offset 5, -12
 768              		.cfi_offset 6, -8
 769              		.cfi_offset 14, -4
 369:Drivers/STM32F4xx_HAL_Driver/Src/stm32f4xx_hal_exti.c **** }
 770              		.loc 1 369 10 view .LVU223
 771 00b4 0020     		movs	r0, #0
 772              	.LVL66:
 773              	.L56:
 774              		.loc 1 370 1 view .LVU224
 775 00b6 70BD     		pop	{r4, r5, r6, pc}
 776              	.LVL67:
 777              	.L71:
 778              		.loc 1 370 1 view .LVU225
 779              		.align	2
 780              	.L70:
 781 00b8 00000000 		.word	.LC0
 782 00bc 003C0140 		.word	1073822720
 783 00c0 00380140 		.word	1073821696
 784              		.cfi_endproc
 785              	.LFE132:
 787              		.section	.text.HAL_EXTI_RegisterCallback,"ax",%progbits
 788              		.align	1
 789              		.global	HAL_EXTI_RegisterCallback
 790              		.syntax unified
 791              		.thumb
 792              		.thumb_func
 793              		.fpu fpv4-sp-d16
 795              	HAL_EXTI_RegisterCallback:
 796              	.LVL68:
 797              	.LFB133:
 371:Drivers/STM32F4xx_HAL_Driver/Src/stm32f4xx_hal_exti.c **** 
 372:Drivers/STM32F4xx_HAL_Driver/Src/stm32f4xx_hal_exti.c **** /**
 373:Drivers/STM32F4xx_HAL_Driver/Src/stm32f4xx_hal_exti.c ****   * @brief  Register callback for a dedicated Exti line.
 374:Drivers/STM32F4xx_HAL_Driver/Src/stm32f4xx_hal_exti.c ****   * @param  hexti Exti handle.
 375:Drivers/STM32F4xx_HAL_Driver/Src/stm32f4xx_hal_exti.c ****   * @param  CallbackID User callback identifier.
 376:Drivers/STM32F4xx_HAL_Driver/Src/stm32f4xx_hal_exti.c ****   *         This parameter can be one of @arg @ref EXTI_CallbackIDTypeDef values.
 377:Drivers/STM32F4xx_HAL_Driver/Src/stm32f4xx_hal_exti.c ****   * @param  pPendingCbfn function pointer to be stored as callback.
 378:Drivers/STM32F4xx_HAL_Driver/Src/stm32f4xx_hal_exti.c ****   * @retval HAL Status.
 379:Drivers/STM32F4xx_HAL_Driver/Src/stm32f4xx_hal_exti.c ****   */
 380:Drivers/STM32F4xx_HAL_Driver/Src/stm32f4xx_hal_exti.c **** HAL_StatusTypeDef HAL_EXTI_RegisterCallback(EXTI_HandleTypeDef *hexti, EXTI_CallbackIDTypeDef Callb
 381:Drivers/STM32F4xx_HAL_Driver/Src/stm32f4xx_hal_exti.c **** {
 798              		.loc 1 381 1 is_stmt 1 view -0
 799              		.cfi_startproc
 800              		@ args = 0, pretend = 0, frame = 0
 801              		@ frame_needed = 0, uses_anonymous_args = 0
ARM GAS  /tmp/ccWw4OVT.s 			page 23


 802              		@ link register save eliminated.
 803              		.loc 1 381 1 is_stmt 0 view .LVU227
 804 0000 0346     		mov	r3, r0
 382:Drivers/STM32F4xx_HAL_Driver/Src/stm32f4xx_hal_exti.c ****   HAL_StatusTypeDef status = HAL_OK;
 805              		.loc 1 382 3 is_stmt 1 view .LVU228
 806              	.LVL69:
 383:Drivers/STM32F4xx_HAL_Driver/Src/stm32f4xx_hal_exti.c **** 
 384:Drivers/STM32F4xx_HAL_Driver/Src/stm32f4xx_hal_exti.c ****   switch (CallbackID)
 807              		.loc 1 384 3 view .LVU229
 808 0002 0846     		mov	r0, r1
 809              	.LVL70:
 810              		.loc 1 384 3 is_stmt 0 view .LVU230
 811 0004 09B9     		cbnz	r1, .L74
 385:Drivers/STM32F4xx_HAL_Driver/Src/stm32f4xx_hal_exti.c ****   {
 386:Drivers/STM32F4xx_HAL_Driver/Src/stm32f4xx_hal_exti.c ****     case  HAL_EXTI_COMMON_CB_ID:
 387:Drivers/STM32F4xx_HAL_Driver/Src/stm32f4xx_hal_exti.c ****       hexti->PendingCallback = pPendingCbfn;
 812              		.loc 1 387 7 is_stmt 1 view .LVU231
 813              		.loc 1 387 30 is_stmt 0 view .LVU232
 814 0006 5A60     		str	r2, [r3, #4]
 388:Drivers/STM32F4xx_HAL_Driver/Src/stm32f4xx_hal_exti.c ****       break;
 815              		.loc 1 388 7 is_stmt 1 view .LVU233
 816 0008 7047     		bx	lr
 817              	.L74:
 389:Drivers/STM32F4xx_HAL_Driver/Src/stm32f4xx_hal_exti.c **** 
 390:Drivers/STM32F4xx_HAL_Driver/Src/stm32f4xx_hal_exti.c ****     default:
 391:Drivers/STM32F4xx_HAL_Driver/Src/stm32f4xx_hal_exti.c ****       status = HAL_ERROR;
 818              		.loc 1 391 14 is_stmt 0 view .LVU234
 819 000a 0120     		movs	r0, #1
 820              	.LVL71:
 392:Drivers/STM32F4xx_HAL_Driver/Src/stm32f4xx_hal_exti.c ****       break;
 393:Drivers/STM32F4xx_HAL_Driver/Src/stm32f4xx_hal_exti.c ****   }
 394:Drivers/STM32F4xx_HAL_Driver/Src/stm32f4xx_hal_exti.c **** 
 395:Drivers/STM32F4xx_HAL_Driver/Src/stm32f4xx_hal_exti.c ****   return status;
 821              		.loc 1 395 3 is_stmt 1 view .LVU235
 396:Drivers/STM32F4xx_HAL_Driver/Src/stm32f4xx_hal_exti.c **** }
 822              		.loc 1 396 1 is_stmt 0 view .LVU236
 823 000c 7047     		bx	lr
 824              		.cfi_endproc
 825              	.LFE133:
 827              		.section	.text.HAL_EXTI_GetHandle,"ax",%progbits
 828              		.align	1
 829              		.global	HAL_EXTI_GetHandle
 830              		.syntax unified
 831              		.thumb
 832              		.thumb_func
 833              		.fpu fpv4-sp-d16
 835              	HAL_EXTI_GetHandle:
 836              	.LVL72:
 837              	.LFB134:
 397:Drivers/STM32F4xx_HAL_Driver/Src/stm32f4xx_hal_exti.c **** 
 398:Drivers/STM32F4xx_HAL_Driver/Src/stm32f4xx_hal_exti.c **** /**
 399:Drivers/STM32F4xx_HAL_Driver/Src/stm32f4xx_hal_exti.c ****   * @brief  Store line number as handle private field.
 400:Drivers/STM32F4xx_HAL_Driver/Src/stm32f4xx_hal_exti.c ****   * @param  hexti Exti handle.
 401:Drivers/STM32F4xx_HAL_Driver/Src/stm32f4xx_hal_exti.c ****   * @param  ExtiLine Exti line number.
 402:Drivers/STM32F4xx_HAL_Driver/Src/stm32f4xx_hal_exti.c ****   *         This parameter can be from 0 to @ref EXTI_LINE_NB.
 403:Drivers/STM32F4xx_HAL_Driver/Src/stm32f4xx_hal_exti.c ****   * @retval HAL Status.
 404:Drivers/STM32F4xx_HAL_Driver/Src/stm32f4xx_hal_exti.c ****   */
ARM GAS  /tmp/ccWw4OVT.s 			page 24


 405:Drivers/STM32F4xx_HAL_Driver/Src/stm32f4xx_hal_exti.c **** HAL_StatusTypeDef HAL_EXTI_GetHandle(EXTI_HandleTypeDef *hexti, uint32_t ExtiLine)
 406:Drivers/STM32F4xx_HAL_Driver/Src/stm32f4xx_hal_exti.c **** {
 838              		.loc 1 406 1 is_stmt 1 view -0
 839              		.cfi_startproc
 840              		@ args = 0, pretend = 0, frame = 0
 841              		@ frame_needed = 0, uses_anonymous_args = 0
 842              		.loc 1 406 1 is_stmt 0 view .LVU238
 843 0000 38B5     		push	{r3, r4, r5, lr}
 844              	.LCFI9:
 845              		.cfi_def_cfa_offset 16
 846              		.cfi_offset 3, -16
 847              		.cfi_offset 4, -12
 848              		.cfi_offset 5, -8
 849              		.cfi_offset 14, -4
 850 0002 0546     		mov	r5, r0
 851 0004 0C46     		mov	r4, r1
 407:Drivers/STM32F4xx_HAL_Driver/Src/stm32f4xx_hal_exti.c ****   /* Check the parameters */
 408:Drivers/STM32F4xx_HAL_Driver/Src/stm32f4xx_hal_exti.c ****   assert_param(IS_EXTI_LINE(ExtiLine));
 852              		.loc 1 408 3 is_stmt 1 view .LVU239
 853 0006 21F0C063 		bic	r3, r1, #100663296
 854 000a 23F01F03 		bic	r3, r3, #31
 855 000e 3BB9     		cbnz	r3, .L76
 856              		.loc 1 408 3 is_stmt 0 discriminator 2 view .LVU240
 857 0010 01F0C063 		and	r3, r1, #100663296
 858 0014 B3F1007F 		cmp	r3, #33554432
 859 0018 0BD0     		beq	.L77
 860              		.loc 1 408 3 discriminator 3 view .LVU241
 861 001a B3F1C06F 		cmp	r3, #100663296
 862 001e 08D0     		beq	.L77
 863              	.L76:
 864              		.loc 1 408 3 discriminator 7 view .LVU242
 865 0020 4FF4CC71 		mov	r1, #408
 866              	.LVL73:
 867              		.loc 1 408 3 discriminator 7 view .LVU243
 868 0024 0648     		ldr	r0, .L82
 869              	.LVL74:
 870              		.loc 1 408 3 discriminator 7 view .LVU244
 871 0026 FFF7FEFF 		bl	assert_failed
 872              	.LVL75:
 873              	.L78:
 409:Drivers/STM32F4xx_HAL_Driver/Src/stm32f4xx_hal_exti.c **** 
 410:Drivers/STM32F4xx_HAL_Driver/Src/stm32f4xx_hal_exti.c ****   /* Check null pointer */
 411:Drivers/STM32F4xx_HAL_Driver/Src/stm32f4xx_hal_exti.c ****   if (hexti == NULL)
 874              		.loc 1 411 3 is_stmt 1 view .LVU245
 875              		.loc 1 411 6 is_stmt 0 view .LVU246
 876 002a 3DB1     		cbz	r5, .L80
 412:Drivers/STM32F4xx_HAL_Driver/Src/stm32f4xx_hal_exti.c ****   {
 413:Drivers/STM32F4xx_HAL_Driver/Src/stm32f4xx_hal_exti.c ****     return HAL_ERROR;
 414:Drivers/STM32F4xx_HAL_Driver/Src/stm32f4xx_hal_exti.c ****   }
 415:Drivers/STM32F4xx_HAL_Driver/Src/stm32f4xx_hal_exti.c ****   else
 416:Drivers/STM32F4xx_HAL_Driver/Src/stm32f4xx_hal_exti.c ****   {
 417:Drivers/STM32F4xx_HAL_Driver/Src/stm32f4xx_hal_exti.c ****     /* Store line number as handle private field */
 418:Drivers/STM32F4xx_HAL_Driver/Src/stm32f4xx_hal_exti.c ****     hexti->Line = ExtiLine;
 877              		.loc 1 418 5 is_stmt 1 view .LVU247
 878              		.loc 1 418 17 is_stmt 0 view .LVU248
 879 002c 2C60     		str	r4, [r5]
 419:Drivers/STM32F4xx_HAL_Driver/Src/stm32f4xx_hal_exti.c **** 
ARM GAS  /tmp/ccWw4OVT.s 			page 25


 420:Drivers/STM32F4xx_HAL_Driver/Src/stm32f4xx_hal_exti.c ****     return HAL_OK;
 880              		.loc 1 420 5 is_stmt 1 view .LVU249
 881              		.loc 1 420 12 is_stmt 0 view .LVU250
 882 002e 0020     		movs	r0, #0
 883              	.L79:
 421:Drivers/STM32F4xx_HAL_Driver/Src/stm32f4xx_hal_exti.c ****   }
 422:Drivers/STM32F4xx_HAL_Driver/Src/stm32f4xx_hal_exti.c **** }
 884              		.loc 1 422 1 view .LVU251
 885 0030 38BD     		pop	{r3, r4, r5, pc}
 886              	.LVL76:
 887              	.L77:
 408:Drivers/STM32F4xx_HAL_Driver/Src/stm32f4xx_hal_exti.c **** 
 888              		.loc 1 408 3 discriminator 6 view .LVU252
 889 0032 04F01F03 		and	r3, r4, #31
 890 0036 162B     		cmp	r3, #22
 891 0038 F7D9     		bls	.L78
 892 003a F1E7     		b	.L76
 893              	.LVL77:
 894              	.L80:
 413:Drivers/STM32F4xx_HAL_Driver/Src/stm32f4xx_hal_exti.c ****   }
 895              		.loc 1 413 12 view .LVU253
 896 003c 0120     		movs	r0, #1
 897 003e F7E7     		b	.L79
 898              	.L83:
 899              		.align	2
 900              	.L82:
 901 0040 00000000 		.word	.LC0
 902              		.cfi_endproc
 903              	.LFE134:
 905              		.section	.text.HAL_EXTI_IRQHandler,"ax",%progbits
 906              		.align	1
 907              		.global	HAL_EXTI_IRQHandler
 908              		.syntax unified
 909              		.thumb
 910              		.thumb_func
 911              		.fpu fpv4-sp-d16
 913              	HAL_EXTI_IRQHandler:
 914              	.LVL78:
 915              	.LFB135:
 423:Drivers/STM32F4xx_HAL_Driver/Src/stm32f4xx_hal_exti.c **** 
 424:Drivers/STM32F4xx_HAL_Driver/Src/stm32f4xx_hal_exti.c **** /**
 425:Drivers/STM32F4xx_HAL_Driver/Src/stm32f4xx_hal_exti.c ****   * @}
 426:Drivers/STM32F4xx_HAL_Driver/Src/stm32f4xx_hal_exti.c ****   */
 427:Drivers/STM32F4xx_HAL_Driver/Src/stm32f4xx_hal_exti.c **** 
 428:Drivers/STM32F4xx_HAL_Driver/Src/stm32f4xx_hal_exti.c **** /** @addtogroup EXTI_Exported_Functions_Group2
 429:Drivers/STM32F4xx_HAL_Driver/Src/stm32f4xx_hal_exti.c ****   *  @brief EXTI IO functions.
 430:Drivers/STM32F4xx_HAL_Driver/Src/stm32f4xx_hal_exti.c ****   *
 431:Drivers/STM32F4xx_HAL_Driver/Src/stm32f4xx_hal_exti.c **** @verbatim
 432:Drivers/STM32F4xx_HAL_Driver/Src/stm32f4xx_hal_exti.c ****  ===============================================================================
 433:Drivers/STM32F4xx_HAL_Driver/Src/stm32f4xx_hal_exti.c ****                        ##### IO operation functions #####
 434:Drivers/STM32F4xx_HAL_Driver/Src/stm32f4xx_hal_exti.c ****  ===============================================================================
 435:Drivers/STM32F4xx_HAL_Driver/Src/stm32f4xx_hal_exti.c **** 
 436:Drivers/STM32F4xx_HAL_Driver/Src/stm32f4xx_hal_exti.c **** @endverbatim
 437:Drivers/STM32F4xx_HAL_Driver/Src/stm32f4xx_hal_exti.c ****   * @{
 438:Drivers/STM32F4xx_HAL_Driver/Src/stm32f4xx_hal_exti.c ****   */
 439:Drivers/STM32F4xx_HAL_Driver/Src/stm32f4xx_hal_exti.c **** 
 440:Drivers/STM32F4xx_HAL_Driver/Src/stm32f4xx_hal_exti.c **** /**
ARM GAS  /tmp/ccWw4OVT.s 			page 26


 441:Drivers/STM32F4xx_HAL_Driver/Src/stm32f4xx_hal_exti.c ****   * @brief  Handle EXTI interrupt request.
 442:Drivers/STM32F4xx_HAL_Driver/Src/stm32f4xx_hal_exti.c ****   * @param  hexti Exti handle.
 443:Drivers/STM32F4xx_HAL_Driver/Src/stm32f4xx_hal_exti.c ****   * @retval none.
 444:Drivers/STM32F4xx_HAL_Driver/Src/stm32f4xx_hal_exti.c ****   */
 445:Drivers/STM32F4xx_HAL_Driver/Src/stm32f4xx_hal_exti.c **** void HAL_EXTI_IRQHandler(EXTI_HandleTypeDef *hexti)
 446:Drivers/STM32F4xx_HAL_Driver/Src/stm32f4xx_hal_exti.c **** {
 916              		.loc 1 446 1 is_stmt 1 view -0
 917              		.cfi_startproc
 918              		@ args = 0, pretend = 0, frame = 0
 919              		@ frame_needed = 0, uses_anonymous_args = 0
 920              		.loc 1 446 1 is_stmt 0 view .LVU255
 921 0000 08B5     		push	{r3, lr}
 922              	.LCFI10:
 923              		.cfi_def_cfa_offset 8
 924              		.cfi_offset 3, -8
 925              		.cfi_offset 14, -4
 447:Drivers/STM32F4xx_HAL_Driver/Src/stm32f4xx_hal_exti.c ****   uint32_t regval;
 926              		.loc 1 447 3 is_stmt 1 view .LVU256
 448:Drivers/STM32F4xx_HAL_Driver/Src/stm32f4xx_hal_exti.c ****   uint32_t maskline;
 927              		.loc 1 448 3 view .LVU257
 449:Drivers/STM32F4xx_HAL_Driver/Src/stm32f4xx_hal_exti.c **** 
 450:Drivers/STM32F4xx_HAL_Driver/Src/stm32f4xx_hal_exti.c ****   /* Compute line mask */
 451:Drivers/STM32F4xx_HAL_Driver/Src/stm32f4xx_hal_exti.c ****   maskline = (1uL << (hexti->Line & EXTI_PIN_MASK));
 928              		.loc 1 451 3 view .LVU258
 929              		.loc 1 451 28 is_stmt 0 view .LVU259
 930 0002 0368     		ldr	r3, [r0]
 931              		.loc 1 451 35 view .LVU260
 932 0004 03F01F02 		and	r2, r3, #31
 933              		.loc 1 451 12 view .LVU261
 934 0008 0123     		movs	r3, #1
 935 000a 9340     		lsls	r3, r3, r2
 936              	.LVL79:
 452:Drivers/STM32F4xx_HAL_Driver/Src/stm32f4xx_hal_exti.c **** 
 453:Drivers/STM32F4xx_HAL_Driver/Src/stm32f4xx_hal_exti.c ****   /* Get pending bit  */
 454:Drivers/STM32F4xx_HAL_Driver/Src/stm32f4xx_hal_exti.c ****   regval = (EXTI->PR & maskline);
 937              		.loc 1 454 3 is_stmt 1 view .LVU262
 938              		.loc 1 454 17 is_stmt 0 view .LVU263
 939 000c 044A     		ldr	r2, .L87
 940 000e 5269     		ldr	r2, [r2, #20]
 941              	.LVL80:
 455:Drivers/STM32F4xx_HAL_Driver/Src/stm32f4xx_hal_exti.c ****   if (regval != 0x00u)
 942              		.loc 1 455 3 is_stmt 1 view .LVU264
 943              		.loc 1 455 6 is_stmt 0 view .LVU265
 944 0010 1A42     		tst	r2, r3
 945 0012 04D0     		beq	.L84
 456:Drivers/STM32F4xx_HAL_Driver/Src/stm32f4xx_hal_exti.c ****   {
 457:Drivers/STM32F4xx_HAL_Driver/Src/stm32f4xx_hal_exti.c ****     /* Clear pending bit */
 458:Drivers/STM32F4xx_HAL_Driver/Src/stm32f4xx_hal_exti.c ****     EXTI->PR = maskline;
 946              		.loc 1 458 5 is_stmt 1 view .LVU266
 947              		.loc 1 458 14 is_stmt 0 view .LVU267
 948 0014 024A     		ldr	r2, .L87
 949              	.LVL81:
 950              		.loc 1 458 14 view .LVU268
 951 0016 5361     		str	r3, [r2, #20]
 459:Drivers/STM32F4xx_HAL_Driver/Src/stm32f4xx_hal_exti.c **** 
 460:Drivers/STM32F4xx_HAL_Driver/Src/stm32f4xx_hal_exti.c ****     /* Call callback */
 461:Drivers/STM32F4xx_HAL_Driver/Src/stm32f4xx_hal_exti.c ****     if (hexti->PendingCallback != NULL)
ARM GAS  /tmp/ccWw4OVT.s 			page 27


 952              		.loc 1 461 5 is_stmt 1 view .LVU269
 953              		.loc 1 461 14 is_stmt 0 view .LVU270
 954 0018 4368     		ldr	r3, [r0, #4]
 955              	.LVL82:
 956              		.loc 1 461 8 view .LVU271
 957 001a 03B1     		cbz	r3, .L84
 462:Drivers/STM32F4xx_HAL_Driver/Src/stm32f4xx_hal_exti.c ****     {
 463:Drivers/STM32F4xx_HAL_Driver/Src/stm32f4xx_hal_exti.c ****       hexti->PendingCallback();
 958              		.loc 1 463 7 is_stmt 1 view .LVU272
 959 001c 9847     		blx	r3
 960              	.LVL83:
 961              	.L84:
 464:Drivers/STM32F4xx_HAL_Driver/Src/stm32f4xx_hal_exti.c ****     }
 465:Drivers/STM32F4xx_HAL_Driver/Src/stm32f4xx_hal_exti.c ****   }
 466:Drivers/STM32F4xx_HAL_Driver/Src/stm32f4xx_hal_exti.c **** }
 962              		.loc 1 466 1 is_stmt 0 view .LVU273
 963 001e 08BD     		pop	{r3, pc}
 964              	.L88:
 965              		.align	2
 966              	.L87:
 967 0020 003C0140 		.word	1073822720
 968              		.cfi_endproc
 969              	.LFE135:
 971              		.section	.text.HAL_EXTI_GetPending,"ax",%progbits
 972              		.align	1
 973              		.global	HAL_EXTI_GetPending
 974              		.syntax unified
 975              		.thumb
 976              		.thumb_func
 977              		.fpu fpv4-sp-d16
 979              	HAL_EXTI_GetPending:
 980              	.LVL84:
 981              	.LFB136:
 467:Drivers/STM32F4xx_HAL_Driver/Src/stm32f4xx_hal_exti.c **** 
 468:Drivers/STM32F4xx_HAL_Driver/Src/stm32f4xx_hal_exti.c **** /**
 469:Drivers/STM32F4xx_HAL_Driver/Src/stm32f4xx_hal_exti.c ****   * @brief  Get interrupt pending bit of a dedicated line.
 470:Drivers/STM32F4xx_HAL_Driver/Src/stm32f4xx_hal_exti.c ****   * @param  hexti Exti handle.
 471:Drivers/STM32F4xx_HAL_Driver/Src/stm32f4xx_hal_exti.c ****   * @param  Edge Specify which pending edge as to be checked.
 472:Drivers/STM32F4xx_HAL_Driver/Src/stm32f4xx_hal_exti.c ****   *         This parameter can be one of the following values:
 473:Drivers/STM32F4xx_HAL_Driver/Src/stm32f4xx_hal_exti.c ****   *           @arg @ref EXTI_TRIGGER_RISING_FALLING
 474:Drivers/STM32F4xx_HAL_Driver/Src/stm32f4xx_hal_exti.c ****   *         This parameter is kept for compatibility with other series.
 475:Drivers/STM32F4xx_HAL_Driver/Src/stm32f4xx_hal_exti.c ****   * @retval 1 if interrupt is pending else 0.
 476:Drivers/STM32F4xx_HAL_Driver/Src/stm32f4xx_hal_exti.c ****   */
 477:Drivers/STM32F4xx_HAL_Driver/Src/stm32f4xx_hal_exti.c **** uint32_t HAL_EXTI_GetPending(EXTI_HandleTypeDef *hexti, uint32_t Edge)
 478:Drivers/STM32F4xx_HAL_Driver/Src/stm32f4xx_hal_exti.c **** {
 982              		.loc 1 478 1 is_stmt 1 view -0
 983              		.cfi_startproc
 984              		@ args = 0, pretend = 0, frame = 0
 985              		@ frame_needed = 0, uses_anonymous_args = 0
 986              		.loc 1 478 1 is_stmt 0 view .LVU275
 987 0000 38B5     		push	{r3, r4, r5, lr}
 988              	.LCFI11:
 989              		.cfi_def_cfa_offset 16
 990              		.cfi_offset 3, -16
 991              		.cfi_offset 4, -12
 992              		.cfi_offset 5, -8
 993              		.cfi_offset 14, -4
ARM GAS  /tmp/ccWw4OVT.s 			page 28


 994 0002 0446     		mov	r4, r0
 995 0004 0D46     		mov	r5, r1
 479:Drivers/STM32F4xx_HAL_Driver/Src/stm32f4xx_hal_exti.c ****   uint32_t regval;
 996              		.loc 1 479 3 is_stmt 1 view .LVU276
 480:Drivers/STM32F4xx_HAL_Driver/Src/stm32f4xx_hal_exti.c ****   uint32_t linepos;
 997              		.loc 1 480 3 view .LVU277
 481:Drivers/STM32F4xx_HAL_Driver/Src/stm32f4xx_hal_exti.c ****   uint32_t maskline;
 998              		.loc 1 481 3 view .LVU278
 482:Drivers/STM32F4xx_HAL_Driver/Src/stm32f4xx_hal_exti.c **** 
 483:Drivers/STM32F4xx_HAL_Driver/Src/stm32f4xx_hal_exti.c ****   /* Check parameters */
 484:Drivers/STM32F4xx_HAL_Driver/Src/stm32f4xx_hal_exti.c ****   assert_param(IS_EXTI_LINE(hexti->Line));
 999              		.loc 1 484 3 view .LVU279
 1000 0006 0268     		ldr	r2, [r0]
 1001 0008 22F0C063 		bic	r3, r2, #100663296
 1002 000c 23F01F03 		bic	r3, r3, #31
 1003 0010 3BB9     		cbnz	r3, .L90
 1004              		.loc 1 484 3 is_stmt 0 discriminator 2 view .LVU280
 1005 0012 02F0C063 		and	r3, r2, #100663296
 1006 0016 B3F1007F 		cmp	r3, #33554432
 1007 001a 18D0     		beq	.L91
 1008              		.loc 1 484 3 discriminator 3 view .LVU281
 1009 001c B3F1C06F 		cmp	r3, #100663296
 1010 0020 15D0     		beq	.L91
 1011              	.L90:
 1012              		.loc 1 484 3 discriminator 7 view .LVU282
 1013 0022 4FF4F271 		mov	r1, #484
 1014              	.LVL85:
 1015              		.loc 1 484 3 discriminator 7 view .LVU283
 1016 0026 1248     		ldr	r0, .L98
 1017              	.LVL86:
 1018              		.loc 1 484 3 discriminator 7 view .LVU284
 1019 0028 FFF7FEFF 		bl	assert_failed
 1020              	.LVL87:
 1021              	.L92:
 485:Drivers/STM32F4xx_HAL_Driver/Src/stm32f4xx_hal_exti.c ****   assert_param(IS_EXTI_CONFIG_LINE(hexti->Line));
 1022              		.loc 1 485 3 is_stmt 1 view .LVU285
 1023 002c 2368     		ldr	r3, [r4]
 1024 002e 13F0007F 		tst	r3, #33554432
 1025 0032 11D0     		beq	.L96
 1026              	.L93:
 486:Drivers/STM32F4xx_HAL_Driver/Src/stm32f4xx_hal_exti.c ****   assert_param(IS_EXTI_PENDING_EDGE(Edge));
 1027              		.loc 1 486 3 view .LVU286
 1028 0034 032D     		cmp	r5, #3
 1029 0036 15D1     		bne	.L97
 1030              	.L94:
 487:Drivers/STM32F4xx_HAL_Driver/Src/stm32f4xx_hal_exti.c **** 
 488:Drivers/STM32F4xx_HAL_Driver/Src/stm32f4xx_hal_exti.c ****   /* Compute line mask */
 489:Drivers/STM32F4xx_HAL_Driver/Src/stm32f4xx_hal_exti.c ****   linepos = (hexti->Line & EXTI_PIN_MASK);
 1031              		.loc 1 489 3 view .LVU287
 1032              		.loc 1 489 19 is_stmt 0 view .LVU288
 1033 0038 2368     		ldr	r3, [r4]
 1034              		.loc 1 489 11 view .LVU289
 1035 003a 03F01F03 		and	r3, r3, #31
 1036              	.LVL88:
 490:Drivers/STM32F4xx_HAL_Driver/Src/stm32f4xx_hal_exti.c ****   maskline = (1uL << linepos);
 1037              		.loc 1 490 3 is_stmt 1 view .LVU290
 1038              		.loc 1 490 12 is_stmt 0 view .LVU291
ARM GAS  /tmp/ccWw4OVT.s 			page 29


 1039 003e 0120     		movs	r0, #1
 1040 0040 00FA03F2 		lsl	r2, r0, r3
 1041              	.LVL89:
 491:Drivers/STM32F4xx_HAL_Driver/Src/stm32f4xx_hal_exti.c **** 
 492:Drivers/STM32F4xx_HAL_Driver/Src/stm32f4xx_hal_exti.c ****   /* return 1 if bit is set else 0 */
 493:Drivers/STM32F4xx_HAL_Driver/Src/stm32f4xx_hal_exti.c ****   regval = ((EXTI->PR & maskline) >> linepos);
 1042              		.loc 1 493 3 is_stmt 1 view .LVU292
 1043              		.loc 1 493 18 is_stmt 0 view .LVU293
 1044 0044 0B49     		ldr	r1, .L98+4
 1045 0046 4869     		ldr	r0, [r1, #20]
 1046              		.loc 1 493 23 view .LVU294
 1047 0048 1040     		ands	r0, r0, r2
 1048              	.LVL90:
 494:Drivers/STM32F4xx_HAL_Driver/Src/stm32f4xx_hal_exti.c ****   return regval;
 1049              		.loc 1 494 3 is_stmt 1 view .LVU295
 495:Drivers/STM32F4xx_HAL_Driver/Src/stm32f4xx_hal_exti.c **** }
 1050              		.loc 1 495 1 is_stmt 0 view .LVU296
 1051 004a D840     		lsrs	r0, r0, r3
 1052              	.LVL91:
 1053              		.loc 1 495 1 view .LVU297
 1054 004c 38BD     		pop	{r3, r4, r5, pc}
 1055              	.LVL92:
 1056              	.L91:
 484:Drivers/STM32F4xx_HAL_Driver/Src/stm32f4xx_hal_exti.c ****   assert_param(IS_EXTI_CONFIG_LINE(hexti->Line));
 1057              		.loc 1 484 3 discriminator 6 view .LVU298
 1058 004e 02F01F02 		and	r2, r2, #31
 1059 0052 162A     		cmp	r2, #22
 1060 0054 EAD9     		bls	.L92
 1061 0056 E4E7     		b	.L90
 1062              	.LVL93:
 1063              	.L96:
 485:Drivers/STM32F4xx_HAL_Driver/Src/stm32f4xx_hal_exti.c ****   assert_param(IS_EXTI_PENDING_EDGE(Edge));
 1064              		.loc 1 485 3 discriminator 1 view .LVU299
 1065 0058 40F2E511 		movw	r1, #485
 1066 005c 0448     		ldr	r0, .L98
 1067 005e FFF7FEFF 		bl	assert_failed
 1068              	.LVL94:
 1069 0062 E7E7     		b	.L93
 1070              	.L97:
 486:Drivers/STM32F4xx_HAL_Driver/Src/stm32f4xx_hal_exti.c **** 
 1071              		.loc 1 486 3 discriminator 1 view .LVU300
 1072 0064 4FF4F371 		mov	r1, #486
 1073 0068 0148     		ldr	r0, .L98
 1074 006a FFF7FEFF 		bl	assert_failed
 1075              	.LVL95:
 1076 006e E3E7     		b	.L94
 1077              	.L99:
 1078              		.align	2
 1079              	.L98:
 1080 0070 00000000 		.word	.LC0
 1081 0074 003C0140 		.word	1073822720
 1082              		.cfi_endproc
 1083              	.LFE136:
 1085              		.section	.text.HAL_EXTI_ClearPending,"ax",%progbits
 1086              		.align	1
 1087              		.global	HAL_EXTI_ClearPending
 1088              		.syntax unified
ARM GAS  /tmp/ccWw4OVT.s 			page 30


 1089              		.thumb
 1090              		.thumb_func
 1091              		.fpu fpv4-sp-d16
 1093              	HAL_EXTI_ClearPending:
 1094              	.LVL96:
 1095              	.LFB137:
 496:Drivers/STM32F4xx_HAL_Driver/Src/stm32f4xx_hal_exti.c **** 
 497:Drivers/STM32F4xx_HAL_Driver/Src/stm32f4xx_hal_exti.c **** /**
 498:Drivers/STM32F4xx_HAL_Driver/Src/stm32f4xx_hal_exti.c ****   * @brief  Clear interrupt pending bit of a dedicated line.
 499:Drivers/STM32F4xx_HAL_Driver/Src/stm32f4xx_hal_exti.c ****   * @param  hexti Exti handle.
 500:Drivers/STM32F4xx_HAL_Driver/Src/stm32f4xx_hal_exti.c ****   * @param  Edge Specify which pending edge as to be clear.
 501:Drivers/STM32F4xx_HAL_Driver/Src/stm32f4xx_hal_exti.c ****   *         This parameter can be one of the following values:
 502:Drivers/STM32F4xx_HAL_Driver/Src/stm32f4xx_hal_exti.c ****   *           @arg @ref EXTI_TRIGGER_RISING_FALLING
 503:Drivers/STM32F4xx_HAL_Driver/Src/stm32f4xx_hal_exti.c ****   *         This parameter is kept for compatibility with other series.
 504:Drivers/STM32F4xx_HAL_Driver/Src/stm32f4xx_hal_exti.c ****   * @retval None.
 505:Drivers/STM32F4xx_HAL_Driver/Src/stm32f4xx_hal_exti.c ****   */
 506:Drivers/STM32F4xx_HAL_Driver/Src/stm32f4xx_hal_exti.c **** void HAL_EXTI_ClearPending(EXTI_HandleTypeDef *hexti, uint32_t Edge)
 507:Drivers/STM32F4xx_HAL_Driver/Src/stm32f4xx_hal_exti.c **** {
 1096              		.loc 1 507 1 is_stmt 1 view -0
 1097              		.cfi_startproc
 1098              		@ args = 0, pretend = 0, frame = 0
 1099              		@ frame_needed = 0, uses_anonymous_args = 0
 1100              		.loc 1 507 1 is_stmt 0 view .LVU302
 1101 0000 38B5     		push	{r3, r4, r5, lr}
 1102              	.LCFI12:
 1103              		.cfi_def_cfa_offset 16
 1104              		.cfi_offset 3, -16
 1105              		.cfi_offset 4, -12
 1106              		.cfi_offset 5, -8
 1107              		.cfi_offset 14, -4
 1108 0002 0446     		mov	r4, r0
 1109 0004 0D46     		mov	r5, r1
 508:Drivers/STM32F4xx_HAL_Driver/Src/stm32f4xx_hal_exti.c ****   uint32_t maskline;
 1110              		.loc 1 508 3 is_stmt 1 view .LVU303
 509:Drivers/STM32F4xx_HAL_Driver/Src/stm32f4xx_hal_exti.c **** 
 510:Drivers/STM32F4xx_HAL_Driver/Src/stm32f4xx_hal_exti.c ****   /* Check parameters */
 511:Drivers/STM32F4xx_HAL_Driver/Src/stm32f4xx_hal_exti.c ****   assert_param(IS_EXTI_LINE(hexti->Line));
 1111              		.loc 1 511 3 view .LVU304
 1112 0006 0268     		ldr	r2, [r0]
 1113 0008 22F0C063 		bic	r3, r2, #100663296
 1114 000c 23F01F03 		bic	r3, r3, #31
 1115 0010 3BB9     		cbnz	r3, .L101
 1116              		.loc 1 511 3 is_stmt 0 discriminator 2 view .LVU305
 1117 0012 02F0C063 		and	r3, r2, #100663296
 1118 0016 B3F1007F 		cmp	r3, #33554432
 1119 001a 15D0     		beq	.L102
 1120              		.loc 1 511 3 discriminator 3 view .LVU306
 1121 001c B3F1C06F 		cmp	r3, #100663296
 1122 0020 12D0     		beq	.L102
 1123              	.L101:
 1124              		.loc 1 511 3 discriminator 7 view .LVU307
 1125 0022 40F2FF11 		movw	r1, #511
 1126              	.LVL97:
 1127              		.loc 1 511 3 discriminator 7 view .LVU308
 1128 0026 1148     		ldr	r0, .L109
 1129              	.LVL98:
 1130              		.loc 1 511 3 discriminator 7 view .LVU309
ARM GAS  /tmp/ccWw4OVT.s 			page 31


 1131 0028 FFF7FEFF 		bl	assert_failed
 1132              	.LVL99:
 1133              	.L103:
 512:Drivers/STM32F4xx_HAL_Driver/Src/stm32f4xx_hal_exti.c ****   assert_param(IS_EXTI_CONFIG_LINE(hexti->Line));
 1134              		.loc 1 512 3 is_stmt 1 view .LVU310
 1135 002c 2368     		ldr	r3, [r4]
 1136 002e 13F0007F 		tst	r3, #33554432
 1137 0032 0ED0     		beq	.L107
 1138              	.L104:
 513:Drivers/STM32F4xx_HAL_Driver/Src/stm32f4xx_hal_exti.c ****   assert_param(IS_EXTI_PENDING_EDGE(Edge));
 1139              		.loc 1 513 3 view .LVU311
 1140 0034 032D     		cmp	r5, #3
 1141 0036 12D1     		bne	.L108
 1142              	.L105:
 514:Drivers/STM32F4xx_HAL_Driver/Src/stm32f4xx_hal_exti.c **** 
 515:Drivers/STM32F4xx_HAL_Driver/Src/stm32f4xx_hal_exti.c ****   /* Compute line mask */
 516:Drivers/STM32F4xx_HAL_Driver/Src/stm32f4xx_hal_exti.c ****   maskline = (1uL << (hexti->Line & EXTI_PIN_MASK));
 1143              		.loc 1 516 3 view .LVU312
 1144              		.loc 1 516 28 is_stmt 0 view .LVU313
 1145 0038 2268     		ldr	r2, [r4]
 1146              		.loc 1 516 35 view .LVU314
 1147 003a 02F01F02 		and	r2, r2, #31
 1148              		.loc 1 516 12 view .LVU315
 1149 003e 0123     		movs	r3, #1
 1150 0040 9340     		lsls	r3, r3, r2
 1151              	.LVL100:
 517:Drivers/STM32F4xx_HAL_Driver/Src/stm32f4xx_hal_exti.c **** 
 518:Drivers/STM32F4xx_HAL_Driver/Src/stm32f4xx_hal_exti.c ****   /* Clear Pending bit */
 519:Drivers/STM32F4xx_HAL_Driver/Src/stm32f4xx_hal_exti.c ****   EXTI->PR =  maskline;
 1152              		.loc 1 519 3 is_stmt 1 view .LVU316
 1153              		.loc 1 519 12 is_stmt 0 view .LVU317
 1154 0042 0B4A     		ldr	r2, .L109+4
 1155 0044 5361     		str	r3, [r2, #20]
 520:Drivers/STM32F4xx_HAL_Driver/Src/stm32f4xx_hal_exti.c **** }
 1156              		.loc 1 520 1 view .LVU318
 1157 0046 38BD     		pop	{r3, r4, r5, pc}
 1158              	.LVL101:
 1159              	.L102:
 511:Drivers/STM32F4xx_HAL_Driver/Src/stm32f4xx_hal_exti.c ****   assert_param(IS_EXTI_CONFIG_LINE(hexti->Line));
 1160              		.loc 1 511 3 discriminator 6 view .LVU319
 1161 0048 02F01F02 		and	r2, r2, #31
 1162 004c 162A     		cmp	r2, #22
 1163 004e EDD9     		bls	.L103
 1164 0050 E7E7     		b	.L101
 1165              	.LVL102:
 1166              	.L107:
 512:Drivers/STM32F4xx_HAL_Driver/Src/stm32f4xx_hal_exti.c ****   assert_param(IS_EXTI_PENDING_EDGE(Edge));
 1167              		.loc 1 512 3 discriminator 1 view .LVU320
 1168 0052 4FF40071 		mov	r1, #512
 1169 0056 0548     		ldr	r0, .L109
 1170 0058 FFF7FEFF 		bl	assert_failed
 1171              	.LVL103:
 1172 005c EAE7     		b	.L104
 1173              	.L108:
 513:Drivers/STM32F4xx_HAL_Driver/Src/stm32f4xx_hal_exti.c **** 
 1174              		.loc 1 513 3 discriminator 1 view .LVU321
 1175 005e 40F20121 		movw	r1, #513
ARM GAS  /tmp/ccWw4OVT.s 			page 32


 1176 0062 0248     		ldr	r0, .L109
 1177 0064 FFF7FEFF 		bl	assert_failed
 1178              	.LVL104:
 1179 0068 E6E7     		b	.L105
 1180              	.L110:
 1181 006a 00BF     		.align	2
 1182              	.L109:
 1183 006c 00000000 		.word	.LC0
 1184 0070 003C0140 		.word	1073822720
 1185              		.cfi_endproc
 1186              	.LFE137:
 1188              		.section	.text.HAL_EXTI_GenerateSWI,"ax",%progbits
 1189              		.align	1
 1190              		.global	HAL_EXTI_GenerateSWI
 1191              		.syntax unified
 1192              		.thumb
 1193              		.thumb_func
 1194              		.fpu fpv4-sp-d16
 1196              	HAL_EXTI_GenerateSWI:
 1197              	.LVL105:
 1198              	.LFB138:
 521:Drivers/STM32F4xx_HAL_Driver/Src/stm32f4xx_hal_exti.c **** 
 522:Drivers/STM32F4xx_HAL_Driver/Src/stm32f4xx_hal_exti.c **** /**
 523:Drivers/STM32F4xx_HAL_Driver/Src/stm32f4xx_hal_exti.c ****   * @brief  Generate a software interrupt for a dedicated line.
 524:Drivers/STM32F4xx_HAL_Driver/Src/stm32f4xx_hal_exti.c ****   * @param  hexti Exti handle.
 525:Drivers/STM32F4xx_HAL_Driver/Src/stm32f4xx_hal_exti.c ****   * @retval None.
 526:Drivers/STM32F4xx_HAL_Driver/Src/stm32f4xx_hal_exti.c ****   */
 527:Drivers/STM32F4xx_HAL_Driver/Src/stm32f4xx_hal_exti.c **** void HAL_EXTI_GenerateSWI(EXTI_HandleTypeDef *hexti)
 528:Drivers/STM32F4xx_HAL_Driver/Src/stm32f4xx_hal_exti.c **** {
 1199              		.loc 1 528 1 is_stmt 1 view -0
 1200              		.cfi_startproc
 1201              		@ args = 0, pretend = 0, frame = 0
 1202              		@ frame_needed = 0, uses_anonymous_args = 0
 1203              		.loc 1 528 1 is_stmt 0 view .LVU323
 1204 0000 10B5     		push	{r4, lr}
 1205              	.LCFI13:
 1206              		.cfi_def_cfa_offset 8
 1207              		.cfi_offset 4, -8
 1208              		.cfi_offset 14, -4
 1209 0002 0446     		mov	r4, r0
 529:Drivers/STM32F4xx_HAL_Driver/Src/stm32f4xx_hal_exti.c ****   uint32_t maskline;
 1210              		.loc 1 529 3 is_stmt 1 view .LVU324
 530:Drivers/STM32F4xx_HAL_Driver/Src/stm32f4xx_hal_exti.c **** 
 531:Drivers/STM32F4xx_HAL_Driver/Src/stm32f4xx_hal_exti.c ****   /* Check parameters */
 532:Drivers/STM32F4xx_HAL_Driver/Src/stm32f4xx_hal_exti.c ****   assert_param(IS_EXTI_LINE(hexti->Line));
 1211              		.loc 1 532 3 view .LVU325
 1212 0004 0268     		ldr	r2, [r0]
 1213 0006 22F0C063 		bic	r3, r2, #100663296
 1214 000a 23F01F03 		bic	r3, r3, #31
 1215 000e 3BB9     		cbnz	r3, .L112
 1216              		.loc 1 532 3 is_stmt 0 discriminator 2 view .LVU326
 1217 0010 02F0C063 		and	r3, r2, #100663296
 1218 0014 B3F1007F 		cmp	r3, #33554432
 1219 0018 13D0     		beq	.L113
 1220              		.loc 1 532 3 discriminator 3 view .LVU327
 1221 001a B3F1C06F 		cmp	r3, #100663296
 1222 001e 10D0     		beq	.L113
ARM GAS  /tmp/ccWw4OVT.s 			page 33


 1223              	.L112:
 1224              		.loc 1 532 3 discriminator 7 view .LVU328
 1225 0020 4FF40571 		mov	r1, #532
 1226 0024 0C48     		ldr	r0, .L118
 1227              	.LVL106:
 1228              		.loc 1 532 3 discriminator 7 view .LVU329
 1229 0026 FFF7FEFF 		bl	assert_failed
 1230              	.LVL107:
 1231              	.L114:
 533:Drivers/STM32F4xx_HAL_Driver/Src/stm32f4xx_hal_exti.c ****   assert_param(IS_EXTI_CONFIG_LINE(hexti->Line));
 1232              		.loc 1 533 3 is_stmt 1 view .LVU330
 1233 002a 2368     		ldr	r3, [r4]
 1234 002c 13F0007F 		tst	r3, #33554432
 1235 0030 0CD0     		beq	.L117
 1236              	.L115:
 534:Drivers/STM32F4xx_HAL_Driver/Src/stm32f4xx_hal_exti.c **** 
 535:Drivers/STM32F4xx_HAL_Driver/Src/stm32f4xx_hal_exti.c ****   /* Compute line mask */
 536:Drivers/STM32F4xx_HAL_Driver/Src/stm32f4xx_hal_exti.c ****   maskline = (1uL << (hexti->Line & EXTI_PIN_MASK));
 1237              		.loc 1 536 3 view .LVU331
 1238              		.loc 1 536 28 is_stmt 0 view .LVU332
 1239 0032 2268     		ldr	r2, [r4]
 1240              		.loc 1 536 35 view .LVU333
 1241 0034 02F01F02 		and	r2, r2, #31
 1242              		.loc 1 536 12 view .LVU334
 1243 0038 0123     		movs	r3, #1
 1244 003a 9340     		lsls	r3, r3, r2
 1245              	.LVL108:
 537:Drivers/STM32F4xx_HAL_Driver/Src/stm32f4xx_hal_exti.c **** 
 538:Drivers/STM32F4xx_HAL_Driver/Src/stm32f4xx_hal_exti.c ****   /* Generate Software interrupt */
 539:Drivers/STM32F4xx_HAL_Driver/Src/stm32f4xx_hal_exti.c ****   EXTI->SWIER = maskline;
 1246              		.loc 1 539 3 is_stmt 1 view .LVU335
 1247              		.loc 1 539 15 is_stmt 0 view .LVU336
 1248 003c 074A     		ldr	r2, .L118+4
 1249 003e 1361     		str	r3, [r2, #16]
 540:Drivers/STM32F4xx_HAL_Driver/Src/stm32f4xx_hal_exti.c **** }
 1250              		.loc 1 540 1 view .LVU337
 1251 0040 10BD     		pop	{r4, pc}
 1252              	.LVL109:
 1253              	.L113:
 532:Drivers/STM32F4xx_HAL_Driver/Src/stm32f4xx_hal_exti.c ****   assert_param(IS_EXTI_CONFIG_LINE(hexti->Line));
 1254              		.loc 1 532 3 discriminator 6 view .LVU338
 1255 0042 02F01F02 		and	r2, r2, #31
 1256 0046 162A     		cmp	r2, #22
 1257 0048 EFD9     		bls	.L114
 1258 004a E9E7     		b	.L112
 1259              	.LVL110:
 1260              	.L117:
 533:Drivers/STM32F4xx_HAL_Driver/Src/stm32f4xx_hal_exti.c **** 
 1261              		.loc 1 533 3 discriminator 1 view .LVU339
 1262 004c 40F21521 		movw	r1, #533
 1263 0050 0148     		ldr	r0, .L118
 1264 0052 FFF7FEFF 		bl	assert_failed
 1265              	.LVL111:
 1266 0056 ECE7     		b	.L115
 1267              	.L119:
 1268              		.align	2
 1269              	.L118:
ARM GAS  /tmp/ccWw4OVT.s 			page 34


 1270 0058 00000000 		.word	.LC0
 1271 005c 003C0140 		.word	1073822720
 1272              		.cfi_endproc
 1273              	.LFE138:
 1275              		.text
 1276              	.Letext0:
 1277              		.file 2 "/usr/lib/gcc/arm-none-eabi/9.2.1/include/stdint.h"
 1278              		.file 3 "Drivers/CMSIS/Include/core_cm4.h"
 1279              		.file 4 "Drivers/CMSIS/Device/ST/STM32F4xx/Include/system_stm32f4xx.h"
 1280              		.file 5 "Drivers/CMSIS/Device/ST/STM32F4xx/Include/stm32f407xx.h"
 1281              		.file 6 "Drivers/STM32F4xx_HAL_Driver/Inc/stm32f4xx_hal_def.h"
 1282              		.file 7 "Drivers/STM32F4xx_HAL_Driver/Inc/stm32f4xx_hal_exti.h"
 1283              		.file 8 "Drivers/STM32F4xx_HAL_Driver/Inc/stm32f4xx_hal.h"
 1284              		.file 9 "Core/Inc/stm32f4xx_hal_conf.h"
ARM GAS  /tmp/ccWw4OVT.s 			page 35

