ARM GAS  /tmp/ccM6tb6W.s 			page 1


   1              		.cpu cortex-m4
   2              		.eabi_attribute 27, 1
   3              		.eabi_attribute 28, 1
   4              		.eabi_attribute 20, 1
   5              		.eabi_attribute 21, 1
   6              		.eabi_attribute 23, 3
   7              		.eabi_attribute 24, 1
   8              		.eabi_attribute 25, 1
   9              		.eabi_attribute 26, 1
  10              		.eabi_attribute 30, 1
  11              		.eabi_attribute 34, 1
  12              		.eabi_attribute 18, 4
  13              		.file	"stm32_ub_vga_screen.c"
  14              		.text
  15              	.Ltext0:
  16              		.cfi_sections	.debug_frame
  17              		.section	.text.UB_VGA_Screen_Init,"ax",%progbits
  18              		.align	1
  19              		.global	UB_VGA_Screen_Init
  20              		.arch armv7e-m
  21              		.syntax unified
  22              		.thumb
  23              		.thumb_func
  24              		.fpu fpv4-sp-d16
  26              	UB_VGA_Screen_Init:
  27              	.LFB130:
  28              		.file 1 "Core/ub_lib/stm32_ub_vga_screen.c"
   1:Core/ub_lib/stm32_ub_vga_screen.c **** //--------------------------------------------------------------
   2:Core/ub_lib/stm32_ub_vga_screen.c **** // File     : stm32_ub_vga_320x240.c
   3:Core/ub_lib/stm32_ub_vga_screen.c **** // CPU      : STM32F4
   4:Core/ub_lib/stm32_ub_vga_screen.c **** // IDE      : CooCox CoIDE 1.7.0
   5:Core/ub_lib/stm32_ub_vga_screen.c **** // Module   : GPIO, TIM, MISC, DMA
   6:Core/ub_lib/stm32_ub_vga_screen.c **** // Function : VGA out by GPIO (320x240 Pixel, 8bit color)
   7:Core/ub_lib/stm32_ub_vga_screen.c **** //
   8:Core/ub_lib/stm32_ub_vga_screen.c **** // signals  : PB11      = HSync-Signal
   9:Core/ub_lib/stm32_ub_vga_screen.c **** //            PB12      = VSync-Signal
  10:Core/ub_lib/stm32_ub_vga_screen.c **** //            PE8+PE9   = color Blue
  11:Core/ub_lib/stm32_ub_vga_screen.c **** //            PE10-PE12 = color Green
  12:Core/ub_lib/stm32_ub_vga_screen.c **** //            PE13-PE15 = color red
  13:Core/ub_lib/stm32_ub_vga_screen.c **** //
  14:Core/ub_lib/stm32_ub_vga_screen.c **** // uses     : TIM1, TIM2
  15:Core/ub_lib/stm32_ub_vga_screen.c **** //            DMA2, Channel6, Stream5
  16:Core/ub_lib/stm32_ub_vga_screen.c **** //--------------------------------------------------------------
  17:Core/ub_lib/stm32_ub_vga_screen.c **** 
  18:Core/ub_lib/stm32_ub_vga_screen.c **** 
  19:Core/ub_lib/stm32_ub_vga_screen.c **** //--------------------------------------------------------------
  20:Core/ub_lib/stm32_ub_vga_screen.c **** // Includes
  21:Core/ub_lib/stm32_ub_vga_screen.c **** //--------------------------------------------------------------
  22:Core/ub_lib/stm32_ub_vga_screen.c **** #include "stm32_ub_vga_screen.h"
  23:Core/ub_lib/stm32_ub_vga_screen.c **** 
  24:Core/ub_lib/stm32_ub_vga_screen.c **** extern TIM_HandleTypeDef htim1;
  25:Core/ub_lib/stm32_ub_vga_screen.c **** extern TIM_HandleTypeDef htim2;
  26:Core/ub_lib/stm32_ub_vga_screen.c **** extern DMA_HandleTypeDef hdma_tim1_up;
  27:Core/ub_lib/stm32_ub_vga_screen.c **** 
  28:Core/ub_lib/stm32_ub_vga_screen.c **** //--------------------------------------------------------------
  29:Core/ub_lib/stm32_ub_vga_screen.c **** // Init VGA-Module
  30:Core/ub_lib/stm32_ub_vga_screen.c **** //--------------------------------------------------------------
ARM GAS  /tmp/ccM6tb6W.s 			page 2


  31:Core/ub_lib/stm32_ub_vga_screen.c **** void UB_VGA_Screen_Init(void)
  32:Core/ub_lib/stm32_ub_vga_screen.c **** {
  29              		.loc 1 32 1 view -0
  30              		.cfi_startproc
  31              		@ args = 0, pretend = 0, frame = 0
  32              		@ frame_needed = 0, uses_anonymous_args = 0
  33 0000 38B5     		push	{r3, r4, r5, lr}
  34              	.LCFI0:
  35              		.cfi_def_cfa_offset 16
  36              		.cfi_offset 3, -16
  37              		.cfi_offset 4, -12
  38              		.cfi_offset 5, -8
  39              		.cfi_offset 14, -4
  33:Core/ub_lib/stm32_ub_vga_screen.c ****   VGA.hsync_cnt = 0;
  40              		.loc 1 33 3 view .LVU1
  41              		.loc 1 33 17 is_stmt 0 view .LVU2
  42 0002 1B4C     		ldr	r4, .L3
  43 0004 0023     		movs	r3, #0
  44 0006 2380     		strh	r3, [r4]	@ movhi
  34:Core/ub_lib/stm32_ub_vga_screen.c ****   VGA.start_adr = 0;
  45              		.loc 1 34 3 is_stmt 1 view .LVU3
  46              		.loc 1 34 17 is_stmt 0 view .LVU4
  47 0008 6360     		str	r3, [r4, #4]
  35:Core/ub_lib/stm32_ub_vga_screen.c ****   VGA.dma2_cr_reg = 0;
  48              		.loc 1 35 3 is_stmt 1 view .LVU5
  49              		.loc 1 35 19 is_stmt 0 view .LVU6
  50 000a A360     		str	r3, [r4, #8]
  36:Core/ub_lib/stm32_ub_vga_screen.c **** 
  37:Core/ub_lib/stm32_ub_vga_screen.c ****   GPIOB->BSRR = VGA_VSYNC_Pin;
  51              		.loc 1 37 3 is_stmt 1 view .LVU7
  52              		.loc 1 37 15 is_stmt 0 view .LVU8
  53 000c 03F18043 		add	r3, r3, #1073741824
  54 0010 03F50133 		add	r3, r3, #132096
  55 0014 4FF48052 		mov	r2, #4096
  56 0018 9A61     		str	r2, [r3, #24]
  38:Core/ub_lib/stm32_ub_vga_screen.c **** 
  39:Core/ub_lib/stm32_ub_vga_screen.c ****   // TIM2
  40:Core/ub_lib/stm32_ub_vga_screen.c ****   HAL_TIM_Base_Start(&htim2);
  57              		.loc 1 40 3 is_stmt 1 view .LVU9
  58 001a 164D     		ldr	r5, .L3+4
  59 001c 2846     		mov	r0, r5
  60 001e FFF7FEFF 		bl	HAL_TIM_Base_Start
  61              	.LVL0:
  41:Core/ub_lib/stm32_ub_vga_screen.c ****   HAL_TIM_PWM_Start(&htim2, TIM_CHANNEL_4);
  62              		.loc 1 41 3 view .LVU10
  63 0022 0C21     		movs	r1, #12
  64 0024 2846     		mov	r0, r5
  65 0026 FFF7FEFF 		bl	HAL_TIM_PWM_Start
  66              	.LVL1:
  42:Core/ub_lib/stm32_ub_vga_screen.c ****   HAL_TIM_PWM_Start_IT(&htim2, TIM_CHANNEL_3);
  67              		.loc 1 42 3 view .LVU11
  68 002a 0821     		movs	r1, #8
  69 002c 2846     		mov	r0, r5
  70 002e FFF7FEFF 		bl	HAL_TIM_PWM_Start_IT
  71              	.LVL2:
  43:Core/ub_lib/stm32_ub_vga_screen.c **** 
  44:Core/ub_lib/stm32_ub_vga_screen.c ****   // TIM1
ARM GAS  /tmp/ccM6tb6W.s 			page 3


  45:Core/ub_lib/stm32_ub_vga_screen.c ****   __HAL_TIM_ENABLE_DMA(&htim1, TIM_DMA_UPDATE);
  72              		.loc 1 45 3 view .LVU12
  73 0032 114B     		ldr	r3, .L3+8
  74 0034 1B68     		ldr	r3, [r3]
  75 0036 DA68     		ldr	r2, [r3, #12]
  76 0038 42F48072 		orr	r2, r2, #256
  77 003c DA60     		str	r2, [r3, #12]
  46:Core/ub_lib/stm32_ub_vga_screen.c ****   __HAL_TIM_ENABLE(&htim1);
  78              		.loc 1 46 3 view .LVU13
  79 003e 1A68     		ldr	r2, [r3]
  80 0040 42F00102 		orr	r2, r2, #1
  81 0044 1A60     		str	r2, [r3]
  47:Core/ub_lib/stm32_ub_vga_screen.c ****   HAL_DMA_Start_IT(&hdma_tim1_up, (uint32_t)&VGA_RAM1[0], VGA_GPIOE_ODR_ADDRESS, VGA_DISPLAY_X + 1)
  82              		.loc 1 47 3 view .LVU14
  83 0046 0D4D     		ldr	r5, .L3+12
  84 0048 40F24113 		movw	r3, #321
  85 004c 0C4A     		ldr	r2, .L3+16
  86 004e 0D49     		ldr	r1, .L3+20
  87 0050 2846     		mov	r0, r5
  88 0052 FFF7FEFF 		bl	HAL_DMA_Start_IT
  89              	.LVL3:
  48:Core/ub_lib/stm32_ub_vga_screen.c **** 
  49:Core/ub_lib/stm32_ub_vga_screen.c ****   HAL_DMA_Init(&hdma_tim1_up);
  90              		.loc 1 49 3 view .LVU15
  91 0056 2846     		mov	r0, r5
  92 0058 FFF7FEFF 		bl	HAL_DMA_Init
  93              	.LVL4:
  50:Core/ub_lib/stm32_ub_vga_screen.c ****   __HAL_DMA_ENABLE_IT(&hdma_tim1_up, DMA_IT_TC);
  94              		.loc 1 50 3 view .LVU16
  95 005c 2A68     		ldr	r2, [r5]
  96 005e 1368     		ldr	r3, [r2]
  97 0060 43F01003 		orr	r3, r3, #16
  98 0064 1360     		str	r3, [r2]
  51:Core/ub_lib/stm32_ub_vga_screen.c **** 
  52:Core/ub_lib/stm32_ub_vga_screen.c ****   //-----------------------
  53:Core/ub_lib/stm32_ub_vga_screen.c ****   // Register swap and safe
  54:Core/ub_lib/stm32_ub_vga_screen.c ****   //-----------------------
  55:Core/ub_lib/stm32_ub_vga_screen.c ****   // content of CR-Register read and save
  56:Core/ub_lib/stm32_ub_vga_screen.c ****   VGA.dma2_cr_reg = DMA2_Stream5->CR;
  99              		.loc 1 56 3 view .LVU17
 100              		.loc 1 56 33 is_stmt 0 view .LVU18
 101 0066 084B     		ldr	r3, .L3+24
 102 0068 1B68     		ldr	r3, [r3]
 103              		.loc 1 56 19 view .LVU19
 104 006a A360     		str	r3, [r4, #8]
  57:Core/ub_lib/stm32_ub_vga_screen.c **** }
 105              		.loc 1 57 1 view .LVU20
 106 006c 38BD     		pop	{r3, r4, r5, pc}
 107              	.L4:
 108 006e 00BF     		.align	2
 109              	.L3:
 110 0070 00000000 		.word	VGA
 111 0074 00000000 		.word	htim2
 112 0078 00000000 		.word	htim1
 113 007c 00000000 		.word	hdma_tim1_up
 114 0080 15100240 		.word	1073877013
 115 0084 00000000 		.word	VGA_RAM1
ARM GAS  /tmp/ccM6tb6W.s 			page 4


 116 0088 88640240 		.word	1073898632
 117              		.cfi_endproc
 118              	.LFE130:
 120              		.section	.text.UB_VGA_SetPixel,"ax",%progbits
 121              		.align	1
 122              		.global	UB_VGA_SetPixel
 123              		.syntax unified
 124              		.thumb
 125              		.thumb_func
 126              		.fpu fpv4-sp-d16
 128              	UB_VGA_SetPixel:
 129              	.LVL5:
 130              	.LFB132:
  58:Core/ub_lib/stm32_ub_vga_screen.c **** 
  59:Core/ub_lib/stm32_ub_vga_screen.c **** 
  60:Core/ub_lib/stm32_ub_vga_screen.c **** //--------------------------------------------------------------
  61:Core/ub_lib/stm32_ub_vga_screen.c **** // fill the DMA RAM buffer with one color
  62:Core/ub_lib/stm32_ub_vga_screen.c **** //--------------------------------------------------------------
  63:Core/ub_lib/stm32_ub_vga_screen.c **** void UB_VGA_FillScreen(uint8_t color)
  64:Core/ub_lib/stm32_ub_vga_screen.c **** {
  65:Core/ub_lib/stm32_ub_vga_screen.c ****   uint16_t xp,yp;
  66:Core/ub_lib/stm32_ub_vga_screen.c **** 
  67:Core/ub_lib/stm32_ub_vga_screen.c ****   for(yp = 0; yp < VGA_DISPLAY_Y; yp++) {
  68:Core/ub_lib/stm32_ub_vga_screen.c ****     for(xp = 0; xp < VGA_DISPLAY_X; xp++) {
  69:Core/ub_lib/stm32_ub_vga_screen.c ****       UB_VGA_SetPixel(xp, yp, color);
  70:Core/ub_lib/stm32_ub_vga_screen.c ****     }
  71:Core/ub_lib/stm32_ub_vga_screen.c ****   }
  72:Core/ub_lib/stm32_ub_vga_screen.c **** }
  73:Core/ub_lib/stm32_ub_vga_screen.c **** 
  74:Core/ub_lib/stm32_ub_vga_screen.c **** 
  75:Core/ub_lib/stm32_ub_vga_screen.c **** //--------------------------------------------------------------
  76:Core/ub_lib/stm32_ub_vga_screen.c **** // put one Pixel on the screen with one color
  77:Core/ub_lib/stm32_ub_vga_screen.c **** // Important : the last Pixel+1 from every line must be black (don't know why??)
  78:Core/ub_lib/stm32_ub_vga_screen.c **** //--------------------------------------------------------------
  79:Core/ub_lib/stm32_ub_vga_screen.c **** void UB_VGA_SetPixel(uint16_t xp, uint16_t yp, uint8_t color)
  80:Core/ub_lib/stm32_ub_vga_screen.c **** {
 131              		.loc 1 80 1 is_stmt 1 view -0
 132              		.cfi_startproc
 133              		@ args = 0, pretend = 0, frame = 0
 134              		@ frame_needed = 0, uses_anonymous_args = 0
 135              		@ link register save eliminated.
  81:Core/ub_lib/stm32_ub_vga_screen.c ****   if(xp >= VGA_DISPLAY_X)
 136              		.loc 1 81 3 view .LVU22
 137              		.loc 1 81 5 is_stmt 0 view .LVU23
 138 0000 B0F5A07F 		cmp	r0, #320
 139 0004 00D3     		bcc	.L6
  82:Core/ub_lib/stm32_ub_vga_screen.c ****     xp = 0;
 140              		.loc 1 82 8 view .LVU24
 141 0006 0020     		movs	r0, #0
 142              	.LVL6:
 143              	.L6:
  83:Core/ub_lib/stm32_ub_vga_screen.c ****   if(yp >= VGA_DISPLAY_Y)
 144              		.loc 1 83 3 is_stmt 1 view .LVU25
 145              		.loc 1 83 5 is_stmt 0 view .LVU26
 146 0008 EF29     		cmp	r1, #239
 147 000a 00D9     		bls	.L7
  84:Core/ub_lib/stm32_ub_vga_screen.c ****     yp = 0;
ARM GAS  /tmp/ccM6tb6W.s 			page 5


 148              		.loc 1 84 8 view .LVU27
 149 000c 0021     		movs	r1, #0
 150              	.LVL7:
 151              	.L7:
  85:Core/ub_lib/stm32_ub_vga_screen.c **** 
  86:Core/ub_lib/stm32_ub_vga_screen.c ****   // Write pixel to ram
  87:Core/ub_lib/stm32_ub_vga_screen.c ****   VGA_RAM1[(yp * (VGA_DISPLAY_X + 1)) + xp] = color;
 152              		.loc 1 87 3 is_stmt 1 view .LVU28
 153              		.loc 1 87 16 is_stmt 0 view .LVU29
 154 000e 01EB8103 		add	r3, r1, r1, lsl #2
 155 0012 01EB8311 		add	r1, r1, r3, lsl #6
 156              	.LVL8:
 157              		.loc 1 87 39 view .LVU30
 158 0016 0144     		add	r1, r1, r0
 159              		.loc 1 87 45 view .LVU31
 160 0018 014B     		ldr	r3, .L10
 161 001a 5A54     		strb	r2, [r3, r1]
  88:Core/ub_lib/stm32_ub_vga_screen.c **** }
 162              		.loc 1 88 1 view .LVU32
 163 001c 7047     		bx	lr
 164              	.L11:
 165 001e 00BF     		.align	2
 166              	.L10:
 167 0020 00000000 		.word	VGA_RAM1
 168              		.cfi_endproc
 169              	.LFE132:
 171              		.section	.text.UB_VGA_FillScreen,"ax",%progbits
 172              		.align	1
 173              		.global	UB_VGA_FillScreen
 174              		.syntax unified
 175              		.thumb
 176              		.thumb_func
 177              		.fpu fpv4-sp-d16
 179              	UB_VGA_FillScreen:
 180              	.LVL9:
 181              	.LFB131:
  64:Core/ub_lib/stm32_ub_vga_screen.c ****   uint16_t xp,yp;
 182              		.loc 1 64 1 is_stmt 1 view -0
 183              		.cfi_startproc
 184              		@ args = 0, pretend = 0, frame = 0
 185              		@ frame_needed = 0, uses_anonymous_args = 0
  64:Core/ub_lib/stm32_ub_vga_screen.c ****   uint16_t xp,yp;
 186              		.loc 1 64 1 is_stmt 0 view .LVU34
 187 0000 70B5     		push	{r4, r5, r6, lr}
 188              	.LCFI1:
 189              		.cfi_def_cfa_offset 16
 190              		.cfi_offset 4, -16
 191              		.cfi_offset 5, -12
 192              		.cfi_offset 6, -8
 193              		.cfi_offset 14, -4
 194 0002 0646     		mov	r6, r0
  65:Core/ub_lib/stm32_ub_vga_screen.c **** 
 195              		.loc 1 65 3 is_stmt 1 view .LVU35
  67:Core/ub_lib/stm32_ub_vga_screen.c ****     for(xp = 0; xp < VGA_DISPLAY_X; xp++) {
 196              		.loc 1 67 3 view .LVU36
 197              	.LVL10:
  67:Core/ub_lib/stm32_ub_vga_screen.c ****     for(xp = 0; xp < VGA_DISPLAY_X; xp++) {
ARM GAS  /tmp/ccM6tb6W.s 			page 6


 198              		.loc 1 67 10 is_stmt 0 view .LVU37
 199 0004 0025     		movs	r5, #0
  67:Core/ub_lib/stm32_ub_vga_screen.c ****     for(xp = 0; xp < VGA_DISPLAY_X; xp++) {
 200              		.loc 1 67 3 view .LVU38
 201 0006 01E0     		b	.L13
 202              	.LVL11:
 203              	.L19:
  67:Core/ub_lib/stm32_ub_vga_screen.c ****     for(xp = 0; xp < VGA_DISPLAY_X; xp++) {
 204              		.loc 1 67 35 is_stmt 1 discriminator 2 view .LVU39
  67:Core/ub_lib/stm32_ub_vga_screen.c ****     for(xp = 0; xp < VGA_DISPLAY_X; xp++) {
 205              		.loc 1 67 37 is_stmt 0 discriminator 2 view .LVU40
 206 0008 0135     		adds	r5, r5, #1
 207              	.LVL12:
  67:Core/ub_lib/stm32_ub_vga_screen.c ****     for(xp = 0; xp < VGA_DISPLAY_X; xp++) {
 208              		.loc 1 67 37 discriminator 2 view .LVU41
 209 000a ADB2     		uxth	r5, r5
 210              	.LVL13:
 211              	.L13:
  67:Core/ub_lib/stm32_ub_vga_screen.c ****     for(xp = 0; xp < VGA_DISPLAY_X; xp++) {
 212              		.loc 1 67 15 is_stmt 1 discriminator 1 view .LVU42
  67:Core/ub_lib/stm32_ub_vga_screen.c ****     for(xp = 0; xp < VGA_DISPLAY_X; xp++) {
 213              		.loc 1 67 3 is_stmt 0 discriminator 1 view .LVU43
 214 000c EF2D     		cmp	r5, #239
 215 000e 0BD8     		bhi	.L18
  68:Core/ub_lib/stm32_ub_vga_screen.c ****       UB_VGA_SetPixel(xp, yp, color);
 216              		.loc 1 68 12 view .LVU44
 217 0010 0024     		movs	r4, #0
 218              	.L15:
 219              	.LVL14:
  68:Core/ub_lib/stm32_ub_vga_screen.c ****       UB_VGA_SetPixel(xp, yp, color);
 220              		.loc 1 68 17 is_stmt 1 discriminator 1 view .LVU45
  68:Core/ub_lib/stm32_ub_vga_screen.c ****       UB_VGA_SetPixel(xp, yp, color);
 221              		.loc 1 68 5 is_stmt 0 discriminator 1 view .LVU46
 222 0012 B4F5A07F 		cmp	r4, #320
 223 0016 F7D2     		bcs	.L19
  69:Core/ub_lib/stm32_ub_vga_screen.c ****     }
 224              		.loc 1 69 7 is_stmt 1 discriminator 3 view .LVU47
 225 0018 3246     		mov	r2, r6
 226 001a 2946     		mov	r1, r5
 227 001c 2046     		mov	r0, r4
 228 001e FFF7FEFF 		bl	UB_VGA_SetPixel
 229              	.LVL15:
  68:Core/ub_lib/stm32_ub_vga_screen.c ****       UB_VGA_SetPixel(xp, yp, color);
 230              		.loc 1 68 37 discriminator 3 view .LVU48
  68:Core/ub_lib/stm32_ub_vga_screen.c ****       UB_VGA_SetPixel(xp, yp, color);
 231              		.loc 1 68 39 is_stmt 0 discriminator 3 view .LVU49
 232 0022 0134     		adds	r4, r4, #1
 233              	.LVL16:
  68:Core/ub_lib/stm32_ub_vga_screen.c ****       UB_VGA_SetPixel(xp, yp, color);
 234              		.loc 1 68 39 discriminator 3 view .LVU50
 235 0024 A4B2     		uxth	r4, r4
 236              	.LVL17:
  68:Core/ub_lib/stm32_ub_vga_screen.c ****       UB_VGA_SetPixel(xp, yp, color);
 237              		.loc 1 68 39 discriminator 3 view .LVU51
 238 0026 F4E7     		b	.L15
 239              	.LVL18:
 240              	.L18:
ARM GAS  /tmp/ccM6tb6W.s 			page 7


  72:Core/ub_lib/stm32_ub_vga_screen.c **** 
 241              		.loc 1 72 1 view .LVU52
 242 0028 70BD     		pop	{r4, r5, r6, pc}
  72:Core/ub_lib/stm32_ub_vga_screen.c **** 
 243              		.loc 1 72 1 view .LVU53
 244              		.cfi_endproc
 245              	.LFE131:
 247              		.comm	VGA_RAM1,77040,4
 248              		.comm	VGA,12,4
 249              		.text
 250              	.Letext0:
 251              		.file 2 "/usr/lib/gcc/arm-none-eabi/9.2.1/include/stdint.h"
 252              		.file 3 "Drivers/CMSIS/Include/core_cm4.h"
 253              		.file 4 "Drivers/CMSIS/Device/ST/STM32F4xx/Include/system_stm32f4xx.h"
 254              		.file 5 "Drivers/CMSIS/Device/ST/STM32F4xx/Include/stm32f407xx.h"
 255              		.file 6 "Drivers/STM32F4xx_HAL_Driver/Inc/stm32f4xx_hal_def.h"
 256              		.file 7 "Drivers/STM32F4xx_HAL_Driver/Inc/stm32f4xx_hal_dma.h"
 257              		.file 8 "Drivers/STM32F4xx_HAL_Driver/Inc/stm32f4xx_hal_tim.h"
 258              		.file 9 "Drivers/STM32F4xx_HAL_Driver/Inc/stm32f4xx_hal.h"
 259              		.file 10 "Core/ub_lib/stm32_ub_vga_screen.h"
ARM GAS  /tmp/ccM6tb6W.s 			page 8

